###############################################################################
#
# IAR ELF Linker V7.40.3.8902/W32 for ARM                 22/Feb/2016  18:11:28
# Copyright 2007-2015 IAR Systems AB.
#
#    Output file  =  
#        E:\work\13.WiFi_Mxchip\SDK_MiCOKit_v2.3.0.2\Build\Cloud_RGB_LED\MiCOKit-LPC5410x\COM.MXCHIP.SPP.out.tmp
#    Map file     =  
#        E:\work\13.WiFi_Mxchip\SDK_MiCOKit_v2.3.0.2\Build\Cloud_RGB_LED\MiCOKit-LPC5410x\list_EWARM\COM.MXCHIP.SPP.map
#    Command line =  
#        E:\work\13.WiFi_Mxchip\SDK_MiCOKit_v2.3.0.2\Build\Cloud_RGB_LED\MiCOKit-LPC5410x\obj_EWARM\adc_5410x.o
#        E:\work\13.WiFi_Mxchip\SDK_MiCOKit_v2.3.0.2\Build\Cloud_RGB_LED\MiCOKit-LPC5410x\obj_EWARM\arraylist.o
#        E:\work\13.WiFi_Mxchip\SDK_MiCOKit_v2.3.0.2\Build\Cloud_RGB_LED\MiCOKit-LPC5410x\obj_EWARM\CheckSumUtils.o
#        E:\work\13.WiFi_Mxchip\SDK_MiCOKit_v2.3.0.2\Build\Cloud_RGB_LED\MiCOKit-LPC5410x\obj_EWARM\chip_5410x.o
#        E:\work\13.WiFi_Mxchip\SDK_MiCOKit_v2.3.0.2\Build\Cloud_RGB_LED\MiCOKit-LPC5410x\obj_EWARM\clock_5410x.o
#        E:\work\13.WiFi_Mxchip\SDK_MiCOKit_v2.3.0.2\Build\Cloud_RGB_LED\MiCOKit-LPC5410x\obj_EWARM\config_server.o
#        E:\work\13.WiFi_Mxchip\SDK_MiCOKit_v2.3.0.2\Build\Cloud_RGB_LED\MiCOKit-LPC5410x\obj_EWARM\config_server_menu.o
#        E:\work\13.WiFi_Mxchip\SDK_MiCOKit_v2.3.0.2\Build\Cloud_RGB_LED\MiCOKit-LPC5410x\obj_EWARM\crc_5410x.o
#        E:\work\13.WiFi_Mxchip\SDK_MiCOKit_v2.3.0.2\Build\Cloud_RGB_LED\MiCOKit-LPC5410x\obj_EWARM\crt0_EWARM.o
#        E:\work\13.WiFi_Mxchip\SDK_MiCOKit_v2.3.0.2\Build\Cloud_RGB_LED\MiCOKit-LPC5410x\obj_EWARM\debug.o
#        E:\work\13.WiFi_Mxchip\SDK_MiCOKit_v2.3.0.2\Build\Cloud_RGB_LED\MiCOKit-LPC5410x\obj_EWARM\dma_5410x.o
#        E:\work\13.WiFi_Mxchip\SDK_MiCOKit_v2.3.0.2\Build\Cloud_RGB_LED\MiCOKit-LPC5410x\obj_EWARM\fifo_5410x.o
#        E:\work\13.WiFi_Mxchip\SDK_MiCOKit_v2.3.0.2\Build\Cloud_RGB_LED\MiCOKit-LPC5410x\obj_EWARM\fogCloud.o
#        E:\work\13.WiFi_Mxchip\SDK_MiCOKit_v2.3.0.2\libraries\protocols\fog_cloud\FogCloud_cm4_release.a
#        E:\work\13.WiFi_Mxchip\SDK_MiCOKit_v2.3.0.2\Build\Cloud_RGB_LED\MiCOKit-LPC5410x\obj_EWARM\fpu_init.o
#        E:\work\13.WiFi_Mxchip\SDK_MiCOKit_v2.3.0.2\Build\Cloud_RGB_LED\MiCOKit-LPC5410x\obj_EWARM\gpio_5410x.o
#        E:\work\13.WiFi_Mxchip\SDK_MiCOKit_v2.3.0.2\Build\Cloud_RGB_LED\MiCOKit-LPC5410x\obj_EWARM\gpiogroup_5410x.o
#        E:\work\13.WiFi_Mxchip\SDK_MiCOKit_v2.3.0.2\Build\Cloud_RGB_LED\MiCOKit-LPC5410x\obj_EWARM\hardfault.o
#        E:\work\13.WiFi_Mxchip\SDK_MiCOKit_v2.3.0.2\Build\Cloud_RGB_LED\MiCOKit-LPC5410x\obj_EWARM\HTTPUtils.o
#        E:\work\13.WiFi_Mxchip\SDK_MiCOKit_v2.3.0.2\Build\Cloud_RGB_LED\MiCOKit-LPC5410x\obj_EWARM\i2c_common_5410x.o
#        E:\work\13.WiFi_Mxchip\SDK_MiCOKit_v2.3.0.2\Build\Cloud_RGB_LED\MiCOKit-LPC5410x\obj_EWARM\i2cm_5410x.o
#        E:\work\13.WiFi_Mxchip\SDK_MiCOKit_v2.3.0.2\Build\Cloud_RGB_LED\MiCOKit-LPC5410x\obj_EWARM\i2cs_5410x.o
#        E:\work\13.WiFi_Mxchip\SDK_MiCOKit_v2.3.0.2\Build\Cloud_RGB_LED\MiCOKit-LPC5410x\obj_EWARM\iap.o
#        E:\work\13.WiFi_Mxchip\SDK_MiCOKit_v2.3.0.2\Build\Cloud_RGB_LED\MiCOKit-LPC5410x\obj_EWARM\iocon_5410x.o
#        E:\work\13.WiFi_Mxchip\SDK_MiCOKit_v2.3.0.2\Build\Cloud_RGB_LED\MiCOKit-LPC5410x\obj_EWARM\json_object.o
#        E:\work\13.WiFi_Mxchip\SDK_MiCOKit_v2.3.0.2\Build\Cloud_RGB_LED\MiCOKit-LPC5410x\obj_EWARM\json_tokener.o
#        E:\work\13.WiFi_Mxchip\SDK_MiCOKit_v2.3.0.2\Build\Cloud_RGB_LED\MiCOKit-LPC5410x\obj_EWARM\json_util.o
#        E:\work\13.WiFi_Mxchip\SDK_MiCOKit_v2.3.0.2\Build\Cloud_RGB_LED\MiCOKit-LPC5410x\obj_EWARM\linkhash.o
#        E:\work\13.WiFi_Mxchip\SDK_MiCOKit_v2.3.0.2\Build\Cloud_RGB_LED\MiCOKit-LPC5410x\obj_EWARM\mico_cli.o
#        E:\work\13.WiFi_Mxchip\SDK_MiCOKit_v2.3.0.2\Build\Cloud_RGB_LED\MiCOKit-LPC5410x\obj_EWARM\mico_config.o
#        E:\work\13.WiFi_Mxchip\SDK_MiCOKit_v2.3.0.2\Build\Cloud_RGB_LED\MiCOKit-LPC5410x\obj_EWARM\mico_mdns.o
#        E:\work\13.WiFi_Mxchip\SDK_MiCOKit_v2.3.0.2\Build\Cloud_RGB_LED\MiCOKit-LPC5410x\obj_EWARM\mico_platform_common.o
#        E:\work\13.WiFi_Mxchip\SDK_MiCOKit_v2.3.0.2\Build\Cloud_RGB_LED\MiCOKit-LPC5410x\obj_EWARM\mico_system_init.o
#        E:\work\13.WiFi_Mxchip\SDK_MiCOKit_v2.3.0.2\Build\Cloud_RGB_LED\MiCOKit-LPC5410x\obj_EWARM\mico_system_monitor.o
#        E:\work\13.WiFi_Mxchip\SDK_MiCOKit_v2.3.0.2\Build\Cloud_RGB_LED\MiCOKit-LPC5410x\obj_EWARM\mico_system_notification.o
#        E:\work\13.WiFi_Mxchip\SDK_MiCOKit_v2.3.0.2\Build\Cloud_RGB_LED\MiCOKit-LPC5410x\obj_EWARM\mico_system_para_storage.o
#        E:\work\13.WiFi_Mxchip\SDK_MiCOKit_v2.3.0.2\Build\Cloud_RGB_LED\MiCOKit-LPC5410x\obj_EWARM\mico_system_power_daemon.o
#        E:\work\13.WiFi_Mxchip\SDK_MiCOKit_v2.3.0.2\Build\Cloud_RGB_LED\MiCOKit-LPC5410x\obj_EWARM\MICOAppEntrance.o
#        E:\work\13.WiFi_Mxchip\SDK_MiCOKit_v2.3.0.2\Build\Cloud_RGB_LED\MiCOKit-LPC5410x\obj_EWARM\MICOBonjour.o
#        E:\work\13.WiFi_Mxchip\SDK_MiCOKit_v2.3.0.2\Build\Cloud_RGB_LED\MiCOKit-LPC5410x\obj_EWARM\MICOConfigDelegate.o
#        E:\work\13.WiFi_Mxchip\SDK_MiCOKit_v2.3.0.2\Platform\Drivers\MicoDriverMFiAuth\MicoDriverMFiAuth.a
#        E:\work\13.WiFi_Mxchip\SDK_MiCOKit_v2.3.0.2\Build\Cloud_RGB_LED\MiCOKit-LPC5410x\obj_EWARM\MicoFogCloud.o
#        E:\work\13.WiFi_Mxchip\SDK_MiCOKit_v2.3.0.2\Build\Cloud_RGB_LED\MiCOKit-LPC5410x\obj_EWARM\MicoFogCloudConfigServer.o
#        E:\work\13.WiFi_Mxchip\SDK_MiCOKit_v2.3.0.2\MICO\core\mxchipWNet_cm4f_spi.a
#        E:\work\13.WiFi_Mxchip\SDK_MiCOKit_v2.3.0.2\Build\Cloud_RGB_LED\MiCOKit-LPC5410x\obj_EWARM\pinint_5410x.o
#        E:\work\13.WiFi_Mxchip\SDK_MiCOKit_v2.3.0.2\Build\Cloud_RGB_LED\MiCOKit-LPC5410x\obj_EWARM\platform.o
#        E:\work\13.WiFi_Mxchip\SDK_MiCOKit_v2.3.0.2\Build\Cloud_RGB_LED\MiCOKit-LPC5410x\obj_EWARM\platform_adc.o
#        E:\work\13.WiFi_Mxchip\SDK_MiCOKit_v2.3.0.2\Build\Cloud_RGB_LED\MiCOKit-LPC5410x\obj_EWARM\platform_flash.o
#        E:\work\13.WiFi_Mxchip\SDK_MiCOKit_v2.3.0.2\Build\Cloud_RGB_LED\MiCOKit-LPC5410x\obj_EWARM\platform_gpio.o
#        E:\work\13.WiFi_Mxchip\SDK_MiCOKit_v2.3.0.2\Build\Cloud_RGB_LED\MiCOKit-LPC5410x\obj_EWARM\platform_i2c.o
#        E:\work\13.WiFi_Mxchip\SDK_MiCOKit_v2.3.0.2\Build\Cloud_RGB_LED\MiCOKit-LPC5410x\obj_EWARM\platform_init.o
#        E:\work\13.WiFi_Mxchip\SDK_MiCOKit_v2.3.0.2\Build\Cloud_RGB_LED\MiCOKit-LPC5410x\obj_EWARM\platform_mcu_powersave.o
#        E:\work\13.WiFi_Mxchip\SDK_MiCOKit_v2.3.0.2\Build\Cloud_RGB_LED\MiCOKit-LPC5410x\obj_EWARM\platform_nano_second.o
#        E:\work\13.WiFi_Mxchip\SDK_MiCOKit_v2.3.0.2\Build\Cloud_RGB_LED\MiCOKit-LPC5410x\obj_EWARM\platform_pwm.o
#        E:\work\13.WiFi_Mxchip\SDK_MiCOKit_v2.3.0.2\Build\Cloud_RGB_LED\MiCOKit-LPC5410x\obj_EWARM\platform_rng.o
#        E:\work\13.WiFi_Mxchip\SDK_MiCOKit_v2.3.0.2\Build\Cloud_RGB_LED\MiCOKit-LPC5410x\obj_EWARM\platform_rtc.o
#        E:\work\13.WiFi_Mxchip\SDK_MiCOKit_v2.3.0.2\Build\Cloud_RGB_LED\MiCOKit-LPC5410x\obj_EWARM\platform_spi.o
#        E:\work\13.WiFi_Mxchip\SDK_MiCOKit_v2.3.0.2\Build\Cloud_RGB_LED\MiCOKit-LPC5410x\obj_EWARM\platform_uart.o
#        E:\work\13.WiFi_Mxchip\SDK_MiCOKit_v2.3.0.2\Build\Cloud_RGB_LED\MiCOKit-LPC5410x\obj_EWARM\platform_watchdog.o
#        E:\work\13.WiFi_Mxchip\SDK_MiCOKit_v2.3.0.2\Build\Cloud_RGB_LED\MiCOKit-LPC5410x\obj_EWARM\pll_5410x.o
#        E:\work\13.WiFi_Mxchip\SDK_MiCOKit_v2.3.0.2\Build\Cloud_RGB_LED\MiCOKit-LPC5410x\obj_EWARM\power_control.o
#        E:\work\13.WiFi_Mxchip\SDK_MiCOKit_v2.3.0.2\Build\Cloud_RGB_LED\MiCOKit-LPC5410x\obj_EWARM\printbuf.o
#        E:\work\13.WiFi_Mxchip\SDK_MiCOKit_v2.3.0.2\Build\Cloud_RGB_LED\MiCOKit-LPC5410x\obj_EWARM\Retarget.o
#        E:\work\13.WiFi_Mxchip\SDK_MiCOKit_v2.3.0.2\Build\Cloud_RGB_LED\MiCOKit-LPC5410x\obj_EWARM\ring_buffer.o
#        E:\work\13.WiFi_Mxchip\SDK_MiCOKit_v2.3.0.2\Build\Cloud_RGB_LED\MiCOKit-LPC5410x\obj_EWARM\RingBufferUtils.o
#        E:\work\13.WiFi_Mxchip\SDK_MiCOKit_v2.3.0.2\Build\Cloud_RGB_LED\MiCOKit-LPC5410x\obj_EWARM\ritimer_5410x.o
#        E:\work\13.WiFi_Mxchip\SDK_MiCOKit_v2.3.0.2\Build\Cloud_RGB_LED\MiCOKit-LPC5410x\obj_EWARM\rtc_5410x.o
#        E:\work\13.WiFi_Mxchip\SDK_MiCOKit_v2.3.0.2\Build\Cloud_RGB_LED\MiCOKit-LPC5410x\obj_EWARM\rtc_ut.o
#        E:\work\13.WiFi_Mxchip\SDK_MiCOKit_v2.3.0.2\Build\Cloud_RGB_LED\MiCOKit-LPC5410x\obj_EWARM\sct_5410x.o
#        E:\work\13.WiFi_Mxchip\SDK_MiCOKit_v2.3.0.2\Build\Cloud_RGB_LED\MiCOKit-LPC5410x\obj_EWARM\sct_pwm_5410x.o
#        E:\work\13.WiFi_Mxchip\SDK_MiCOKit_v2.3.0.2\Build\Cloud_RGB_LED\MiCOKit-LPC5410x\obj_EWARM\SocketUtils.o
#        E:\work\13.WiFi_Mxchip\SDK_MiCOKit_v2.3.0.2\Build\Cloud_RGB_LED\MiCOKit-LPC5410x\obj_EWARM\spi_5410x.o
#        E:\work\13.WiFi_Mxchip\SDK_MiCOKit_v2.3.0.2\Build\Cloud_RGB_LED\MiCOKit-LPC5410x\obj_EWARM\spi_common_5410x.o
#        E:\work\13.WiFi_Mxchip\SDK_MiCOKit_v2.3.0.2\Build\Cloud_RGB_LED\MiCOKit-LPC5410x\obj_EWARM\spi_flash.o
#        E:\work\13.WiFi_Mxchip\SDK_MiCOKit_v2.3.0.2\Build\Cloud_RGB_LED\MiCOKit-LPC5410x\obj_EWARM\spi_flash_platform.o
#        E:\work\13.WiFi_Mxchip\SDK_MiCOKit_v2.3.0.2\Build\Cloud_RGB_LED\MiCOKit-LPC5410x\obj_EWARM\spim_5410x.o
#        E:\work\13.WiFi_Mxchip\SDK_MiCOKit_v2.3.0.2\Build\Cloud_RGB_LED\MiCOKit-LPC5410x\obj_EWARM\spis_5410x.o
#        E:\work\13.WiFi_Mxchip\SDK_MiCOKit_v2.3.0.2\Build\Cloud_RGB_LED\MiCOKit-LPC5410x\obj_EWARM\startup_lpc54100_EWARM.o
#        E:\work\13.WiFi_Mxchip\SDK_MiCOKit_v2.3.0.2\Build\Cloud_RGB_LED\MiCOKit-LPC5410x\obj_EWARM\stopwatch_5410x.o
#        E:\work\13.WiFi_Mxchip\SDK_MiCOKit_v2.3.0.2\Build\Cloud_RGB_LED\MiCOKit-LPC5410x\obj_EWARM\StringUtils.o
#        E:\work\13.WiFi_Mxchip\SDK_MiCOKit_v2.3.0.2\Build\Cloud_RGB_LED\MiCOKit-LPC5410x\obj_EWARM\syscon_5410x.o
#        E:\work\13.WiFi_Mxchip\SDK_MiCOKit_v2.3.0.2\Build\Cloud_RGB_LED\MiCOKit-LPC5410x\obj_EWARM\sysinit_5410x.o
#        E:\work\13.WiFi_Mxchip\SDK_MiCOKit_v2.3.0.2\Build\Cloud_RGB_LED\MiCOKit-LPC5410x\obj_EWARM\system_easylink.o
#        E:\work\13.WiFi_Mxchip\SDK_MiCOKit_v2.3.0.2\Build\Cloud_RGB_LED\MiCOKit-LPC5410x\obj_EWARM\system_easylink_delegate.o
#        E:\work\13.WiFi_Mxchip\SDK_MiCOKit_v2.3.0.2\Build\Cloud_RGB_LED\MiCOKit-LPC5410x\obj_EWARM\system_factory_test.o
#        E:\work\13.WiFi_Mxchip\SDK_MiCOKit_v2.3.0.2\Build\Cloud_RGB_LED\MiCOKit-LPC5410x\obj_EWARM\system_misc.o
#        E:\work\13.WiFi_Mxchip\SDK_MiCOKit_v2.3.0.2\Build\Cloud_RGB_LED\MiCOKit-LPC5410x\obj_EWARM\tftp_ota.o
#        E:\work\13.WiFi_Mxchip\SDK_MiCOKit_v2.3.0.2\MICO\system\tftp_ota\tftpc.o
#        E:\work\13.WiFi_Mxchip\SDK_MiCOKit_v2.3.0.2\Build\Cloud_RGB_LED\MiCOKit-LPC5410x\obj_EWARM\timer_5410x.o
#        E:\work\13.WiFi_Mxchip\SDK_MiCOKit_v2.3.0.2\Build\Cloud_RGB_LED\MiCOKit-LPC5410x\obj_EWARM\uart_5410x.o
#        E:\work\13.WiFi_Mxchip\SDK_MiCOKit_v2.3.0.2\Build\Cloud_RGB_LED\MiCOKit-LPC5410x\obj_EWARM\URLUtils.o
#        E:\work\13.WiFi_Mxchip\SDK_MiCOKit_v2.3.0.2\Build\Cloud_RGB_LED\MiCOKit-LPC5410x\obj_EWARM\user_main.o
#        E:\work\13.WiFi_Mxchip\SDK_MiCOKit_v2.3.0.2\Build\Cloud_RGB_LED\MiCOKit-LPC5410x\obj_EWARM\user_uart.o
#        E:\work\13.WiFi_Mxchip\SDK_MiCOKit_v2.3.0.2\Build\Cloud_RGB_LED\MiCOKit-LPC5410x\obj_EWARM\utick_5410x.o
#        E:\work\13.WiFi_Mxchip\SDK_MiCOKit_v2.3.0.2\Build\Cloud_RGB_LED\MiCOKit-LPC5410x\obj_EWARM\wlan_bus_spi.o
#        E:\work\13.WiFi_Mxchip\SDK_MiCOKit_v2.3.0.2\Build\Cloud_RGB_LED\MiCOKit-LPC5410x\obj_EWARM\wlan_platform.o
#        E:\work\13.WiFi_Mxchip\SDK_MiCOKit_v2.3.0.2\Build\Cloud_RGB_LED\MiCOKit-LPC5410x\obj_EWARM\wlan_platform_common.o
#        E:\work\13.WiFi_Mxchip\SDK_MiCOKit_v2.3.0.2\Build\Cloud_RGB_LED\MiCOKit-LPC5410x\obj_EWARM\wwdt_5410x.o
#        E:\work\13.WiFi_Mxchip\SDK_MiCOKit_v2.3.0.2\Build\Cloud_RGB_LED\MiCOKit-LPC5410x\obj_EWARM\ZigBeeAttributeReport.o
#        E:\work\13.WiFi_Mxchip\SDK_MiCOKit_v2.3.0.2\Build\Cloud_RGB_LED\MiCOKit-LPC5410x\obj_EWARM\ZigBeeControlBridge.o
#        E:\work\13.WiFi_Mxchip\SDK_MiCOKit_v2.3.0.2\Build\Cloud_RGB_LED\MiCOKit-LPC5410x\obj_EWARM\ZigBeeNetwork.o
#        E:\work\13.WiFi_Mxchip\SDK_MiCOKit_v2.3.0.2\Build\Cloud_RGB_LED\MiCOKit-LPC5410x\obj_EWARM\ZigBeePDM.o
#        E:\work\13.WiFi_Mxchip\SDK_MiCOKit_v2.3.0.2\Build\Cloud_RGB_LED\MiCOKit-LPC5410x\obj_EWARM\ZigBeeSerialLink.o
#        E:\work\13.WiFi_Mxchip\SDK_MiCOKit_v2.3.0.2\Build\Cloud_RGB_LED\MiCOKit-LPC5410x\obj_EWARM\ZigBeeZLL.o
#        --redirect _Printf=_PrintfFull --redirect _Scanf=_ScanfFull -o
#        E:\work\13.WiFi_Mxchip\SDK_MiCOKit_v2.3.0.2\Build\Cloud_RGB_LED\MiCOKit-LPC5410x\COM.MXCHIP.SPP.out.tmp
#        --map
#        E:\work\13.WiFi_Mxchip\SDK_MiCOKit_v2.3.0.2\Build\Cloud_RGB_LED\MiCOKit-LPC5410x\list_EWARM\COM.MXCHIP.SPP.map
#        --config
#        E:\work\13.WiFi_Mxchip\SDK_MiCOKit_v2.3.0.2\Projects\LPC5410x\Cloud_RGB_LED\EWARM\..\..\..\..\Board\MiCOKit-LPC5410x\micoLinkerForIAR.icf
#        --semihosting --entry __iar_program_start --vfe --threaded_lib
#
###############################################################################

*******************************************************************************
*** MESSAGES
***

Warning[Lt049]: Potential floating point parameter passing conflict. The first
          module below references the second and they have been built with
          different settings.
          AAPCS, base variant: E:\work\13.WiFi_Mxchip\SDK_MiCOKit_v2.3.0.2\Buil
                    d\Cloud_RGB_LED\MiCOKit-LPC5410x\obj_EWARM\json_object.o
          AAPCS, VFP variant: dlmalloc.o(mxchipWNet_cm4f_spi.a)
Warning[Lt049]: Potential floating point parameter passing conflict. The first
          module below references the second and they have been built with
          different settings.
          AAPCS, base variant: E:\work\13.WiFi_Mxchip\SDK_MiCOKit_v2.3.0.2\Buil
                    d\Cloud_RGB_LED\MiCOKit-LPC5410x\obj_EWARM\json_tokener.o
          AAPCS, VFP variant: dlmalloc.o(mxchipWNet_cm4f_spi.a)
Warning[Lt049]: Potential floating point parameter passing conflict. The first
          module below references the second and they have been built with
          different settings.
          AAPCS, base variant: E:\work\13.WiFi_Mxchip\SDK_MiCOKit_v2.3.0.2\Buil
                    d\Cloud_RGB_LED\MiCOKit-LPC5410x\obj_EWARM\mico_platform_co
                    mmon.o
          AAPCS, VFP variant: wiced_rtos.o(mxchipWNet_cm4f_spi.a)
Warning[Lt049]: Potential floating point parameter passing conflict. The first
          module below references the second and they have been built with
          different settings.
          AAPCS, base variant: E:\work\13.WiFi_Mxchip\SDK_MiCOKit_v2.3.0.2\MICO
                    \system\tftp_ota\tftpc.o
          AAPCS, VFP variant: mxchipWNET.o(mxchipWNet_cm4f_spi.a)
Warning[Lt049]: Potential floating point parameter passing conflict. The first
          module below references the second and they have been built with
          different settings.
          AAPCS, VFP variant: FogCloudUtils.o(FogCloud_cm4_release.a)
          AAPCS, base variant: E:\work\13.WiFi_Mxchip\SDK_MiCOKit_v2.3.0.2\Buil
                    d\Cloud_RGB_LED\MiCOKit-LPC5410x\obj_EWARM\mico_platform_co
                    mmon.o
Warning[Lt049]: Potential floating point parameter passing conflict. The first
          module below references the second and they have been built with
          different settings.
          AAPCS, VFP variant: FogCloudService.o(FogCloud_cm4_release.a)
          AAPCS, base variant: E:\work\13.WiFi_Mxchip\SDK_MiCOKit_v2.3.0.2\Buil
                    d\Cloud_RGB_LED\MiCOKit-LPC5410x\obj_EWARM\json_object.o
Warning[Lt049]: Potential floating point parameter passing conflict. The first
          module below references the second and they have been built with
          different settings.
          AAPCS, VFP variant: FogCloudService.o(FogCloud_cm4_release.a)
          AAPCS, base variant: E:\work\13.WiFi_Mxchip\SDK_MiCOKit_v2.3.0.2\Buil
                    d\Cloud_RGB_LED\MiCOKit-LPC5410x\obj_EWARM\json_tokener.o
Warning[Lt049]: Potential floating point parameter passing conflict. The first
          module below references the second and they have been built with
          different settings.
          AAPCS, VFP variant: wifi.o(mxchipWNet_cm4f_spi.a)
          AAPCS, base variant: E:\work\13.WiFi_Mxchip\SDK_MiCOKit_v2.3.0.2\Buil
                    d\Cloud_RGB_LED\MiCOKit-LPC5410x\obj_EWARM\mico_platform_co
                    mmon.o


*******************************************************************************
*** RUNTIME MODEL ATTRIBUTES
***

CppFlavor                     = *
__Heap_Handler                = DLMalloc
__SystemLibrary               = DLib
__dlib_dynamic_initialization = normal


*******************************************************************************
*** PLACEMENT SUMMARY
***

"A1":  place at 0x0000c000 { ro section .intvec };
"P1":  place in [from 0x0000c000 to 0x0007ffff] { ro };
"P2":  place in [from 0x02000100 to 0x02017fff] |
                [from 0x03400000 to 0x03401fff] { rw, block CSTACK, block HEAP };

  Section             Kind        Address     Size  Object
  -------             ----        -------     ----  ------
"A1":                                        0x108
  .intvec                      0x0000c000    0x108  <Block>
    .intvec           ro code  0x0000c000    0x108  startup_lpc54100_EWARM.o [1]
                             - 0x0000c108    0x108

"P1":                                      0x3878c
  .text               ro code  0x0000c108   0x27e4  smart_config.o [7]
  .text               ro code  0x0000e8ec     0x66  ABImemset.o [8]
  .text               ro code  0x0000e952     0x1e  xsscin.o [5]
  .text               ro code  0x0000e970     0x62  memcmp_unaligned.o [8]
  .text               ro code  0x0000e9d2     0x1a  xsnprout.o [5]
  .text               ro code  0x0000e9ec    0x82a  mxchipWNET.o [7]
  .text               ro code  0x0000f216      0xa  xsprout.o [5]
  .text               ro code  0x0000f220    0x21c  mico_system_notification.o [1]
  .text               ro code  0x0000f43c     0x76  ABImemcpy_unaligned.o [8]
  .rodata             const    0x0000f4b2      0x2  wwd_bus_protocol.o [7]
  .text               ro code  0x0000f4b4     0x44  snprintf.o [5]
  .text               ro code  0x0000f4f8   0x14c0  wwd_wifi.o [7]
  .text               ro code  0x000109b8   0x261c  wifimgr.o [7]
  .text               ro code  0x00012fd4     0x6c  strncpy_unaligned.o [8]
  .text               ro code  0x00013040     0x36  strlen.o [8]
  .rodata             const    0x00013076      0x1  smart_config.o [7]
  .rodata             const    0x00013077      0x1  smart_config.o [7]
  .text               ro code  0x00013078    0x7ce  wiced_rtos.o [7]
  .rodata             const    0x00013846      0x1  smart_config.o [7]
  .rodata             const    0x00013847      0x1  smart_config.o [7]
  .text               ro code  0x00013848    0xba8  tasks.o [7]
  .text               ro code  0x000143f0    0x440  wifi.o [7]
  .text               ro code  0x00014830   0x2590  dlmalloc.o [7]
  .text               ro code  0x00016dc0     0xe0  arc4.o [7]
  .text               ro code  0x00016ea0     0x92  wwd_buffer.o [7]
  .text               ro code  0x00016f34     0x34  sprintf.o [5]
  .text               ro code  0x00016f68    0x628  tcpip.o [7]
  .text               ro code  0x00017590    0x7ec  dns.o [7]
  .text               ro code  0x00017d7c    0x130  wwd_rtos.o [7]
  .text               ro code  0x00017eac     0x20  srand.o [5]
  .text               ro code  0x00017ecc    0xe04  tcp.o [7]
  .text               ro code  0x00018cd0    0x25a  ip_addr.o [7]
  .text               ro code  0x00018f2a     0x36  def.o [7]
  .text               ro code  0x00018f60   0x19cc  sockets.o [7]
  .text               ro code  0x0001a92c     0x42  strcmp_unaligned.o [8]
  .text               ro code  0x0001a970     0x44  strcpy_unaligned.o [8]
  .text               ro code  0x0001a9b4    0x244  wwd_management.o [7]
  .text               ro code  0x0001abf8   0x1156  xprintffull.o [5]
  .text               ro code  0x0001bd50   0x101c  SDPCM.o [7]
  .text               ro code  0x0001cd6c     0x14  mxchip_debug.o [7]
  .text               ro code  0x0001cd80    0x4ec  pbuf.o [7]
  .text               ro code  0x0001d26c    0x4b4  ip.o [7]
  .text               ro code  0x0001d720    0x3b8  system_misc.o [1]
  .text               ro code  0x0001dad8     0x30  aes_wrap.o [7]
  .text               ro code  0x0001db08    0x404  wiced_network.o [7]
  .text               ro code  0x0001df0c    0x1ec  dns_redirect.o [7]
  .text               ro code  0x0001e0f8    0x492  wwd_ap.o [7]
  .text               ro code  0x0001e58c     0x64  dnsclient.o [7]
  .text               ro code  0x0001e5f0     0x2a  strncmp.o [5]
  .text               ro code  0x0001e61c    0x3cc  system_factory_test.o [1]
  .text               ro code  0x0001e9e8    0x9e0  etharp.o [7]
  .text               ro code  0x0001f3c8     0x46  strcasecmp.o [5]
  .text               ro code  0x0001f410   0x1594  tcp_in.o [7]
  .text               ro code  0x000209a4    0x710  udp.o [7]
  .text               ro code  0x000210b4      0x4  strtoul.o [5]
  .text               ro code  0x000210b8    0x140  platform_init.o [1]
  .text               ro code  0x000211f8    0x2e2  platform.o [1]
  .text               ro code  0x000214dc    0x128  MICOAppEntrance.o [1]
  .text               ro code  0x00021604    0x526  queue.o [7]
  .text               ro code  0x00021b2c     0xe8  wlan_platform_common.o [1]
  .text               ro code  0x00021c14     0xec  port.o [7]
  .text               ro code  0x00021d00    0x370  ostimers.o [7]
  .text               ro code  0x00022070     0x9a  list.o [7]
  CODE                ro code  0x0002210c     0xa8  portasm.o [7]
  .text               ro code  0x000221b4     0x1c  strcat.o [5]
  .text               ro code  0x000221d0     0x1e  platform_mcu_powersave.o [1]
  .text               ro code  0x000221ee     0x38  heap_3.o [7]
  .text               ro code  0x00022228    0x540  mico_platform_common.o [1]
  .text               ro code  0x00022768      0x6  abort.o [5]
  .text               ro code  0x00022770      0x6  ABImemclr4.o [8]
  .text               ro code  0x00022776     0x20  xsyslock.o [5]
  .text               ro code  0x00022798     0x2c  xgetmemchunk.o [5]
  .text               ro code  0x000227c4    0x190  wiced_ping.o [7]
  .text               ro code  0x00022954    0x5e0  api_lib.o [7]
  .text               ro code  0x00022f34      0xc  mxchipbesl.o [7]
  .text               ro code  0x00022f40     0xda  netbuf.o [7]
  .text               ro code  0x0002301c    0x27c  lwiptcpip.o [7]
  .text               ro code  0x00023298      0x2  xtls.o [5]
  .text               ro code  0x0002329c    0xcc2  tcp_out.o [7]
  .text               ro code  0x00023f60    0x300  lwiptimers.o [7]
  .text               ro code  0x00024260    0x1b8  memp.o [7]
  .text               ro code  0x00024418     0xe0  rand.o [5]
  .text               ro code  0x000244f8    0x2a0  sys_arch.o [7]
  .text               ro code  0x00024798    0x568  igmp.o [7]
  .text               ro code  0x00024d00    0x3ac  wlan_bus_spi.o [1]
  .text               ro code  0x000250ac    0x6f4  wwd_bus_protocol.o [7]
  .text               ro code  0x000257a0    0x248  wwd_thread.o [7]
  .text               ro code  0x000259e8     0x10  wlan_platform.o [1]
  .text               ro code  0x000259f8     0x20  xmbtowc.o [5]
  .text               ro code  0x00025a18     0x16  strchr.o [8]
  .text               ro code  0x00025a30     0x58  memchr.o [8]
  .text               ro code  0x00025a88      0xa  xmbcurmax.o [5]
  .text               ro code  0x00025a92     0x1a  xwctomb.o [5]
  .text               ro code  0x00025aac     0xee  I64DivMod.o [8]
  .text               ro code  0x00025b9a     0x42  xdnorm.o [6]
  .text               ro code  0x00025bdc     0x2e  DblCmpLe.o [6]
  .text               ro code  0x00025c0c     0x2e  DblCmpGe.o [6]
  .text               ro code  0x00025c3c    0x118  xdscale.o [6]
  .text               ro code  0x00025d54     0x58  DblToI32.o [6]
  .text               ro code  0x00025dac     0x30  I32ToDbl.o [6]
  .text               ro code  0x00025ddc    0x180  DblSub.o [6]
  .text               ro code  0x00025f5c    0x1a2  DblMul.o [6]
  .text               ro code  0x00026100    0x256  DblDiv.o [6]
  .text               ro code  0x00026358     0x6c  localeconv.o [5]
  .text               ro code  0x000263c4      0xe  div.o [5]
  .text               ro code  0x000263d4     0x24  printf.o [5]
  .text               ro code  0x000263f8    0x17c  wwd_network.o [7]
  .text               ro code  0x00026574     0x78  ABImemmove_unaligned.o [8]
  .text               ro code  0x000265ec    0x170  inet_chksum.o [7]
  .text               ro code  0x0002675c    0x1cc  raw.o [7]
  .text               ro code  0x00026928    0x184  icmp.o [7]
  .text               ro code  0x00026aac    0x358  netif.o [7]
  .text               ro code  0x00026e04    0x3cc  mico_system_para_storage.o [1]
  .text               ro code  0x000271d0    0x7e8  StringUtils.o [1]
  .text               ro code  0x000279b8    0xb62  aes.o [7]
  .text               ro code  0x0002851c    0xf20  dhcp.o [7]
  .text               ro code  0x0002943c     0x28  sys.o [7]
  .text               ro code  0x00029464    0x650  dhcp_server.o [7]
  .text               ro code  0x00029ab4     0x48  netifapi.o [7]
  .text               ro code  0x00029afc     0xc6  RingBufferUtils.o [1]
  .text               ro code  0x00029bc4    0x3a8  mftest.o [7]
  .text               ro code  0x00029f6c     0x14  tolower.o [5]
  .text               ro code  0x00029f80    0x198  xstoul.o [5]
  .text               ro code  0x0002a118     0x44  fpu_init.o [1]
  .text               ro code  0x0002a15c     0x3c  power_control.o [1]
  .text               ro code  0x0002a198    0x394  platform_gpio.o [1]
  .text               ro code  0x0002a52c    0x6a0  platform_uart.o [1]
  .text               ro code  0x0002abcc      0xc  platform_rtc.o [1]
  .text               ro code  0x0002abd8    0x2b8  platform_spi.o [1]
  .text               ro code  0x0002ae90    0x126  platform_i2c.o [1]
  .text               ro code  0x0002afb8    0x188  mico_system_power_daemon.o [1]
  .text               ro code  0x0002b140    0x654  user_main.o [1]
  .text               ro code  0x0002b794    0x504  MicoFogCloud.o [1]
  .text               ro code  0x0002bc98     0xb8  mico_system_init.o [1]
  .text               ro code  0x0002bd50    0x340  MICOBonjour.o [1]
  .text               ro code  0x0002c090      0x4  platform_watchdog.o [1]
  .text               ro code  0x0002c094    0x498  platform_flash.o [1]
  .text               ro code  0x0002c52c     0x14  exit.o [9]
  .text               ro code  0x0002c540     0x3a  ABImemset48.o [8]
  .text               ro code  0x0002c57c    0x15c  xsyslock_mtx.o [5]
  .text               ro code  0x0002c6d8    0xeac  api_msg.o [7]
  .text               ro code  0x0002d584     0x20  init.o [7]
  .text               ro code  0x0002d5a4    0x13c  clock_5410x.o [1]
  .text               ro code  0x0002d6e0    0x260  wwd_internal.o [7]
  .text               ro code  0x0002d940    0x300  wwd_firmware.o [7]
  .text               ro code  0x0002dc40     0x24  setlocale.o [5]
  .text               ro code  0x0002dc64     0x60  xencoding_sb.o [5]
  .text               ro code  0x0002dcc4      0x2  I64DivZer.o [8]
  .text               ro code  0x0002dcc8     0xe8  DblAdd.o [6]
  .text               ro code  0x0002ddb0     0x4c  wps_host.o [7]
  .text               ro code  0x0002ddfc     0x7a  CheckSumUtils.o [1]
  .text               ro code  0x0002de76     0x18  toupper.o [5]
  .text               ro code  0x0002de8e     0x3c  isxxx.o [5]
  .text               ro code  0x0002deca     0x16  strnlen.o [5]
  .text               ro code  0x0002dee0     0x44  logging.o [7]
  .text               ro code  0x0002df24     0x8c  wiced_lib.o [7]
  .text               ro code  0x0002dfb0      0xc  xlocale_c.o [5]
  .text               ro code  0x0002dfbc      0xc  errno.o [5]
  .text               ro code  0x0002dfc8     0x38  syscon_5410x.o [1]
  .text               ro code  0x0002e000     0x88  uart_5410x.o [1]
  .text               ro code  0x0002e088     0x94  dma_5410x.o [1]
  .text               ro code  0x0002e11c   0x1492  ZigBeeControlBridge.o [1]
  .text               ro code  0x0002f5b0    0x4bc  user_uart.o [1]
  .text               ro code  0x0002fa6c    0x660  json_object.o [1]
  .text               ro code  0x000300cc    0xeac  json_tokener.o [1]
  .text               ro code  0x00030f78    0x560  ZigBeePDM.o [1]
  .text               ro code  0x000314d8    0x2d4  ZigBeeAttributeReport.o [1]
  .text               ro code  0x000317ac    0x578  ZigBeeNetwork.o [1]
  .text               ro code  0x00031d24     0xc4  ZigBeeZLL.o [1]
  .text               ro code  0x00031de8    0x4b8  fogCloud.o [1]
  .text               ro code  0x000322a0    0x8ac  MicoFogCloudConfigServer.o [1]
  .text               ro code  0x00032b4c    0x4f0  MICOConfigDelegate.o [1]
  .text               ro code  0x0003303c      0x6  ABImemclr.o [8]
  .text               ro code  0x00033044    0xe60  mico_cli.o [1]
  .text               ro code  0x00033ea4    0xa40  system_easylink.o [1]
  .text               ro code  0x000348e4    0xbcc  config_server.o [1]
  .text               ro code  0x000354b0    0xdcc  mico_mdns.o [1]
  .text               ro code  0x0003627c    0x350  spi_flash.o [1]
  .text               ro code  0x000365cc     0x72  iap.o [1]
  .text               ro code  0x0003663e     0x1c  iar_mutex.o [7]
  .text               ro code  0x0003665c    0x230  pll_5410x.o [1]
  .text               ro code  0x0003688c     0x18  read_wifi_firmware.o [7]
  .text               ro code  0x000368a4     0x16  xlocale_c.o [5]
  .text               ro code  0x000368ba     0x24  xlocale_c.o [5]
  .text               ro code  0x000368de     0x14  xlocale_c.o [5]
  .text               ro code  0x000368f4    0x344  ZigBeeSerialLink.o [1]
  .text               ro code  0x00036c38     0x22  I64Shl.o [8]
  .text               ro code  0x00036c5c     0x1e  U64Shr.o [8]
  .text               ro code  0x00036c7c    0x136  printbuf.o [1]
  .text               ro code  0x00036db4    0x34c  linkhash.o [1]
  .text               ro code  0x00037100     0x18  strdup.o [5]
  .text               ro code  0x00037118     0x20  DblCmpEq.o [6]
  .text               ro code  0x00037138     0xe4  json_util.o [1]
  .text               ro code  0x0003721c     0x7a  DblToI64.o [6]
  .text               ro code  0x00037296     0xd4  arraylist.o [1]
  .text               ro code  0x0003736a     0x4e  strncasecmp.o [5]
  .text               ro code  0x000373b8     0x24  sscanf.o [5]
  .text               ro code  0x000373dc     0x14  FogCloudServiceVersion.o [4]
  .text               ro code  0x000373f0   0x10c0  FogCloudService.o [4]
  .text               ro code  0x000384b0    0x9a6  md5.o [7]
  .text               ro code  0x00038e58   0x15ec  FogCloudUtils.o [4]
  .text               ro code  0x0003a444     0xa8  SocketUtils.o [1]
  .text               ro code  0x0003a4ec    0x178  config_server_menu.o [1]
  .text               ro code  0x0003a664    0x6b4  tftpc.o [2]
  .text               ro code  0x0003ad18    0x334  tftp_ota.o [1]
  .text               ro code  0x0003b04c     0x3c  vsnprint.o [5]
  .text               ro code  0x0003b088      0x4  system_easylink_delegate.o [1]
  .text               ro code  0x0003b08c    0xb38  HTTPUtils.o [1]
  .text               ro code  0x0003bbc4     0x30  spi_flash_platform.o [1]
  .text               ro code  0x0003bbf4     0x2c  vsprintf.o [5]
  .text               ro code  0x0003bc20     0x18  vprintf.o [5]
  .text               ro code  0x0003bc38      0x4  exit.o [5]
  .text               ro code  0x0003bc3c    0xcd0  xscanffull.o [5]
  .text               ro code  0x0003c90c    0x800  FogCloudMQTTClient.o [4]
  .text               ro code  0x0003d10c     0x28  strncat.o [5]
  .text               ro code  0x0003d134    0x16c  URLUtils.o [1]
  .text               ro code  0x0003d2a0     0x12  cexit.o [8]
  .text               ro code  0x0003d2b4     0x40  xwctob.o [5]
  .text               ro code  0x0003d2f4     0xa4  xstoll.o [5]
  .text               ro code  0x0003d398    0x1b0  xstoull.o [5]
  .text               ro code  0x0003d548    0x168  xstold.o [6]
  .text               ro code  0x0003d6b0     0x90  DblToFlt.o [6]
  .text               ro code  0x0003d740    0x2a6  MQTTMICO.o [4]
  .text               ro code  0x0003d9e8    0x6b0  MQTTClient.o [4]
  .text               ro code  0x0003e098     0x58  xcloseall.o [5]
  .text               ro code  0x0003e0f0    0x124  xstopfx.o [5]
  .text               ro code  0x0003e214    0x1b8  xstoflt.o [5]
  .rodata             const    0x0003e3cc     0x4c  dns.o [7]
  .text               ro code  0x0003e418    0x200  xdtento.o [6]
  .text               ro code  0x0003e618    0x218  xstoxflt.o [5]
  .text               ro code  0x0003e830    0x1f4  MQTTPacket.o [4]
  .text               ro code  0x0003ea24    0x2e8  MQTTConnectClient.o [4]
  .text               ro code  0x0003ed0c     0xf8  MQTTDeserializePublish.o [4]
  .text               ro code  0x0003ee04    0x10c  MQTTSerializePublish.o [4]
  .text               ro code  0x0003ef10    0x138  MQTTSubscribeClient.o [4]
  .text               ro code  0x0003f048     0x7a  fclose.o [5]
  .text               ro code  0x0003f0c2     0x14  Retarget.o [1]
  .text               ro code  0x0003f0d6     0x56  xdunscal.o [6]
  .text               ro code  0x0003f12c     0x7c  xfofind.o [5]
  .text               ro code  0x0003f1a8     0xb0  fflush.o [5]
  .text               ro code  0x0003f258     0x1a  close.o [9]
  .text               ro code  0x0003f272     0x16  remove.o [9]
  .text               ro code  0x0003f288     0xe0  XShHandles.o [5]
  .rodata             const    0x0003f368   0x1400  aes.o [7]
  .rodata             const    0x00040768   0x1400  aes.o [7]
  .text               ro code  0x00041b68    0x3a4  hardfault.o [1]
  .rodata             const    0x00041f0c    0x30c  wwd_firmware.o [7]
  .rodata             const    0x00042218    0x224  mico_cli.o [1]
  .rodata             const    0x0004243c    0x1c8  platform.o [1]
  .rodata             const    0x00042604    0x100  smart_config.o [7]
  .rodata             const    0x00042704    0x100  wwd_wifi.o [7]
  .text               ro code  0x00042804     0xd6  xfspos.o [5]
  .text               ro code  0x000428da      0xc  xfgpos.o [5]
  .text               ro code  0x000428e6     0x4c  lseek.o [9]
  .text               ro code  0x00042932     0xd0  packbits_init.o [8]
  .text               ro code  0x00042a02     0xb6  xfwprep.o [5]
  .text               ro code  0x00042ab8     0x22  fseek.o [5]
  .rodata             const    0x00042adc     0x68  wifimgr.o [7]
  .text               ro code  0x00042b44     0x68  startup_lpc54100_EWARM.o [1]
  .rodata             const    0x00042bac     0x58  smart_config.o [7]
  .text               ro code  0x00042c04     0x56  fputc.o [5]
  .rodata             const    0x00042c5c     0x4c  dns.o [7]
  .rodata             const    0x00042ca8     0x48  tcp_in.o [7]
  .rodata             const    0x00042cf0     0x44  tcp_in.o [7]
  .rodata             const    0x00042d34     0x40  sockets.o [7]
  .rodata             const    0x00042d74     0x40  wifimgr.o [7]
  .rodata             const    0x00042db4     0x40  wifimgr.o [7]
  .rodata             const    0x00042df4     0x40  udp.o [7]
  .rodata             const    0x00042e34     0x40  udp.o [7]
  .text               ro code  0x00042e74     0x40  zero_init3.o [8]
  .rodata             const    0x00042eb4     0x3c  wifimgr.o [7]
  .rodata             const    0x00042ef0     0x3c  wifimgr.o [7]
  .rodata             const    0x00042f2c     0x3c  wifimgr.o [7]
  .rodata             const    0x00042f68     0x38  wifimgr.o [7]
  .rodata             const    0x00042fa0     0x38  wifimgr.o [7]
  .rodata             const    0x00042fd8     0x38  memp.o [7]
  .rodata             const    0x00043010     0x34  smart_config.o [7]
  .rodata             const    0x00043044     0x30  wifimgr.o [7]
  .rodata             const    0x00043074     0x30  tcp_in.o [7]
  .rodata             const    0x000430a4     0x30  etharp.o [7]
  .rodata             const    0x000430d4     0x30  etharp.o [7]
  .rodata             const    0x00043104     0x30  aes.o [7]
  .rodata             const    0x00043134     0x2c  wifimgr.o [7]
  .rodata             const    0x00043160     0x2c  wifimgr.o [7]
  .rodata             const    0x0004318c     0x2c  wifimgr.o [7]
  .rodata             const    0x000431b8     0x2c  mftest.o [7]
  .rodata             const    0x000431e4     0x2c  etharp.o [7]
  .rodata             const    0x00043210     0x28  wifimgr.o [7]
  .rodata             const    0x00043238     0x28  wifimgr.o [7]
  .rodata             const    0x00043260     0x28  wifimgr.o [7]
  .rodata             const    0x00043288     0x28  wifimgr.o [7]
  .rodata             const    0x000432b0     0x28  wifimgr.o [7]
  .rodata             const    0x000432d8     0x28  SDPCM.o [7]
  .rodata             const    0x00043300     0x28  mftest.o [7]
  .rodata             const    0x00043328     0x28  smart_config.o [7]
  .rodata             const    0x00043350     0x28  aes.o [7]
  .text               ro code  0x00043378     0x28  data_init.o [8]
  .rodata             const    0x000433a0     0x24  json_object.o [1]
  .rodata             const    0x000433c4     0x24  wifimgr.o [7]
  .rodata             const    0x000433e8     0x24  wifimgr.o [7]
  .rodata             const    0x0004340c     0x24  wifimgr.o [7]
  .rodata             const    0x00043430     0x24  SDPCM.o [7]
  .rodata             const    0x00043454     0x24  memp.o [7]
  .rodata             const    0x00043478     0x24  mftest.o [7]
  .rodata             const    0x0004349c     0x24  smart_config.o [7]
  .rodata             const    0x000434c0     0x24  smart_config.o [7]
  .rodata             const    0x000434e4     0x24  tcp_in.o [7]
  .rodata             const    0x00043508     0x24  dhcp_server.o [7]
  .text               ro code  0x0004352c     0x22  fpinit_M.o [6]
  .iar.init_table     const    0x00043550     0x3c  - Linker created -
  .rodata             const    0x0004358c     0x20  wifimgr.o [7]
  .rodata             const    0x000435ac     0x20  wifimgr.o [7]
  .rodata             const    0x000435cc     0x20  wifimgr.o [7]
  .rodata             const    0x000435ec     0x20  wifimgr.o [7]
  .rodata             const    0x0004360c     0x20  wifimgr.o [7]
  .rodata             const    0x0004362c     0x20  wifimgr.o [7]
  .rodata             const    0x0004364c     0x20  wifimgr.o [7]
  .rodata             const    0x0004366c     0x20  memp.o [7]
  .rodata             const    0x0004368c     0x20  memp.o [7]
  .rodata             const    0x000436ac     0x20  memp.o [7]
  .rodata             const    0x000436cc     0x20  mftest.o [7]
  .rodata             const    0x000436ec     0x20  mftest.o [7]
  .rodata             const    0x0004370c     0x20  mftest.o [7]
  .rodata             const    0x0004372c     0x20  smart_config.o [7]
  .rodata             const    0x0004374c     0x20  dns.o [7]
  .rodata             const    0x0004376c     0x20  wifi.o [7]
  .rodata             const    0x0004378c     0x20  udp.o [7]
  .rodata             const    0x000437ac     0x20  dhcp_server.o [7]
  .rodata             const    0x000437cc     0x1c  mxchipWNET.o [7]
  .rodata             const    0x000437e8     0x1c  sockets.o [7]
  .rodata             const    0x00043804     0x1c  wifimgr.o [7]
  .rodata             const    0x00043820     0x1c  wifimgr.o [7]
  .rodata             const    0x0004383c     0x1c  wifimgr.o [7]
  .rodata             const    0x00043858     0x1c  wifimgr.o [7]
  .rodata             const    0x00043874     0x1c  SDPCM.o [7]
  .rodata             const    0x00043890     0x1c  SDPCM.o [7]
  .rodata             const    0x000438ac     0x1c  mftest.o [7]
  .rodata             const    0x000438c8     0x1c  smart_config.o [7]
  .rodata             const    0x000438e4     0x1c  smart_config.o [7]
  .rodata             const    0x00043900     0x1c  smart_config.o [7]
  .rodata             const    0x0004391c     0x1c  smart_config.o [7]
  .rodata             const    0x00043938     0x1c  wwd_wifi.o [7]
  .text               ro code  0x00043954     0x1c  crt0_EWARM.o [1]
  .text               ro code  0x00043970     0x1a  cmain.o [8]
  .rodata             const    0x0004398c     0x18  sockets.o [7]
  .rodata             const    0x000439a4     0x18  sockets.o [7]
  .rodata             const    0x000439bc     0x18  sockets.o [7]
  .rodata             const    0x000439d4     0x18  sockets.o [7]
  .rodata             const    0x000439ec     0x18  wifimgr.o [7]
  .rodata             const    0x00043a04     0x18  wifimgr.o [7]
  .rodata             const    0x00043a1c     0x18  wifimgr.o [7]
  .rodata             const    0x00043a34     0x18  wifimgr.o [7]
  .rodata             const    0x00043a4c     0x18  wifimgr.o [7]
  .rodata             const    0x00043a64     0x18  wifimgr.o [7]
  .rodata             const    0x00043a7c     0x18  wifimgr.o [7]
  .rodata             const    0x00043a94     0x18  wifimgr.o [7]
  .rodata             const    0x00043aac     0x18  wifimgr.o [7]
  .rodata             const    0x00043ac4     0x18  wifimgr.o [7]
  .rodata             const    0x00043adc     0x18  SDPCM.o [7]
  .rodata             const    0x00043af4     0x18  SDPCM.o [7]
  .rodata             const    0x00043b0c     0x18  mftest.o [7]
  .rodata             const    0x00043b24     0x18  mftest.o [7]
  .rodata             const    0x00043b3c     0x18  mftest.o [7]
  .rodata             const    0x00043b54     0x18  smart_config.o [7]
  .rodata             const    0x00043b6c     0x18  smart_config.o [7]
  .rodata             const    0x00043b84     0x18  smart_config.o [7]
  .rodata             const    0x00043b9c     0x18  smart_config.o [7]
  .rodata             const    0x00043bb4     0x18  smart_config.o [7]
  .rodata             const    0x00043bcc     0x18  smart_config.o [7]
  .rodata             const    0x00043be4     0x18  smart_config.o [7]
  .rodata             const    0x00043bfc     0x18  smart_config.o [7]
  .rodata             const    0x00043c14     0x18  smart_config.o [7]
  .text               ro code  0x00043c2c     0x16  xprout.o [5]
  .text               ro code  0x00043c44      0xc  putchar.o [5]
  .rodata             const    0x00043c50     0x14  wifimgr.o [7]
  .rodata             const    0x00043c64     0x14  wifimgr.o [7]
  .rodata             const    0x00043c78     0x14  wifimgr.o [7]
  .rodata             const    0x00043c8c     0x14  wifimgr.o [7]
  .rodata             const    0x00043ca0     0x14  wifimgr.o [7]
  .rodata             const    0x00043cb4     0x14  wifimgr.o [7]
  .rodata             const    0x00043cc8     0x14  wifimgr.o [7]
  .rodata             const    0x00043cdc     0x14  wifimgr.o [7]
  .rodata             const    0x00043cf0     0x14  wifimgr.o [7]
  .rodata             const    0x00043d04     0x14  wifimgr.o [7]
  .rodata             const    0x00043d18     0x14  wifimgr.o [7]
  .rodata             const    0x00043d2c     0x14  wifimgr.o [7]
  .rodata             const    0x00043d40     0x14  wifimgr.o [7]
  .rodata             const    0x00043d54     0x14  wifimgr.o [7]
  .rodata             const    0x00043d68     0x14  wifimgr.o [7]
  .rodata             const    0x00043d7c     0x14  wifimgr.o [7]
  .rodata             const    0x00043d90     0x14  wifimgr.o [7]
  .rodata             const    0x00043da4     0x14  wifimgr.o [7]
  .rodata             const    0x00043db8     0x14  SDPCM.o [7]
  .rodata             const    0x00043dcc     0x14  SDPCM.o [7]
  .rodata             const    0x00043de0     0x14  SDPCM.o [7]
  .rodata             const    0x00043df4     0x14  mftest.o [7]
  .rodata             const    0x00043e08     0x14  mftest.o [7]
  .rodata             const    0x00043e1c     0x14  smart_config.o [7]
  .rodata             const    0x00043e30     0x14  smart_config.o [7]
  .rodata             const    0x00043e44     0x14  smart_config.o [7]
  .rodata             const    0x00043e58     0x14  smart_config.o [7]
  .rodata             const    0x00043e6c     0x14  smart_config.o [7]
  .rodata             const    0x00043e80     0x14  aes_wrap.o [7]
  .rodata             const    0x00043e94     0x14  dns.o [7]
  .rodata             const    0x00043ea8     0x14  wwd_wifi.o [7]
  .rodata             const    0x00043ebc     0x14  wwd_wifi.o [7]
  .rodata             const    0x00043ed0     0x14  tasks.o [7]
  .rodata             const    0x00043ee4     0x14  tasks.o [7]
  .rodata             const    0x00043ef8     0x14  wiced_network.o [7]
  .text               ro code  0x00043f0c     0x12  startup_lpc54100_EWARM.o [1]
  .rodata             const    0x00043f20     0x10  mico_config.o [1]
  .rodata             const    0x00043f30     0x10  mxchipWNET.o [7]
  .rodata             const    0x00043f40     0x10  mxchipWNET.o [7]
  .rodata             const    0x00043f50     0x10  wiced_rtos.o [7]
  .rodata             const    0x00043f60     0x10  wiced_rtos.o [7]
  .rodata             const    0x00043f70     0x10  wifimgr.o [7]
  .rodata             const    0x00043f80     0x10  wifimgr.o [7]
  .rodata             const    0x00043f90     0x10  wifimgr.o [7]
  .rodata             const    0x00043fa0     0x10  wifimgr.o [7]
  .rodata             const    0x00043fb0     0x10  wifimgr.o [7]
  .rodata             const    0x00043fc0     0x10  wifimgr.o [7]
  .rodata             const    0x00043fd0     0x10  wifimgr.o [7]
  .rodata             const    0x00043fe0     0x10  wifimgr.o [7]
  .rodata             const    0x00043ff0     0x10  wifimgr.o [7]
  .rodata             const    0x00044000     0x10  wifimgr.o [7]
  .rodata             const    0x00044010     0x10  wifimgr.o [7]
  .rodata             const    0x00044020     0x10  wifimgr.o [7]
  .rodata             const    0x00044030     0x10  SDPCM.o [7]
  .rodata             const    0x00044040     0x10  memp.o [7]
  .rodata             const    0x00044050     0x10  memp.o [7]
  .rodata             const    0x00044060     0x10  memp.o [7]
  .rodata             const    0x00044070     0x10  memp.o [7]
  .rodata             const    0x00044080     0x10  memp.o [7]
  .rodata             const    0x00044090     0x10  memp.o [7]
  .rodata             const    0x000440a0     0x10  mftest.o [7]
  .rodata             const    0x000440b0     0x10  mftest.o [7]
  .rodata             const    0x000440c0     0x10  smart_config.o [7]
  .rodata             const    0x000440d0     0x10  smart_config.o [7]
  .rodata             const    0x000440e0     0x10  smart_config.o [7]
  .rodata             const    0x000440f0     0x10  smart_config.o [7]
  .rodata             const    0x00044100     0x10  smart_config.o [7]
  .rodata             const    0x00044110     0x10  smart_config.o [7]
  .rodata             const    0x00044120     0x10  smart_config.o [7]
  .rodata             const    0x00044130     0x10  smart_config.o [7]
  .rodata             const    0x00044140     0x10  smart_config.o [7]
  .rodata             const    0x00044150     0x10  dns.o [7]
  .rodata             const    0x00044160     0x10  tcp.o [7]
  .rodata             const    0x00044170     0x10  wwd_wifi.o [7]
  .rodata             const    0x00044180     0x10  wwd_wifi.o [7]
  .rodata             const    0x00044190     0x10  wwd_wifi.o [7]
  .rodata             const    0x000441a0     0x10  wwd_wifi.o [7]
  .rodata             const    0x000441b0     0x10  wifi.o [7]
  .rodata             const    0x000441c0     0x10  lwiptcpip.o [7]
  .rodata             const    0x000441d0     0x10  wwd_ap.o [7]
  .rodata             const    0x000441e0     0x10  FogCloudMQTTClient.o [4]
  .rodata             const    0x000441f0      0xc  wiced_rtos.o [7]
  .rodata             const    0x000441fc      0xc  wifimgr.o [7]
  .rodata             const    0x00044208      0xc  wifimgr.o [7]
  .rodata             const    0x00044214      0xc  wifimgr.o [7]
  .rodata             const    0x00044220      0xc  wifimgr.o [7]
  .rodata             const    0x0004422c      0xc  wifimgr.o [7]
  .rodata             const    0x00044238      0xc  wifimgr.o [7]
  .rodata             const    0x00044244      0xc  wifimgr.o [7]
  .rodata             const    0x00044250      0xc  wifimgr.o [7]
  .rodata             const    0x0004425c      0xc  wifimgr.o [7]
  .rodata             const    0x00044268      0xc  wifimgr.o [7]
  .rodata             const    0x00044274      0xc  wifimgr.o [7]
  .rodata             const    0x00044280      0xc  wifimgr.o [7]
  .rodata             const    0x0004428c      0xc  memp.o [7]
  .rodata             const    0x00044298      0xc  memp.o [7]
  .rodata             const    0x000442a4      0xc  memp.o [7]
  .rodata             const    0x000442b0      0xc  smart_config.o [7]
  .rodata             const    0x000442bc      0xc  smart_config.o [7]
  .rodata             const    0x000442c8      0xc  smart_config.o [7]
  .rodata             const    0x000442d4      0xc  smart_config.o [7]
  .rodata             const    0x000442e0      0xc  smart_config.o [7]
  .rodata             const    0x000442ec      0xc  smart_config.o [7]
  .rodata             const    0x000442f8      0xc  smart_config.o [7]
  .rodata             const    0x00044304      0xc  smart_config.o [7]
  .rodata             const    0x00044310      0xc  smart_config.o [7]
  .rodata             const    0x0004431c      0xc  smart_config.o [7]
  .rodata             const    0x00044328      0xc  smart_config.o [7]
  .rodata             const    0x00044334      0xc  smart_config.o [7]
  .rodata             const    0x00044340      0xc  smart_config.o [7]
  .rodata             const    0x0004434c      0xc  smart_config.o [7]
  .rodata             const    0x00044358      0xc  smart_config.o [7]
  .rodata             const    0x00044364      0xc  smart_config.o [7]
  .rodata             const    0x00044370      0xc  smart_config.o [7]
  .rodata             const    0x0004437c      0xc  smart_config.o [7]
  .rodata             const    0x00044388      0xc  smart_config.o [7]
  .rodata             const    0x00044394      0xc  smart_config.o [7]
  .rodata             const    0x000443a0      0xc  smart_config.o [7]
  .rodata             const    0x000443ac      0xc  smart_config.o [7]
  .rodata             const    0x000443b8      0xc  smart_config.o [7]
  .rodata             const    0x000443c4      0xc  smart_config.o [7]
  .rodata             const    0x000443d0      0xc  smart_config.o [7]
  .rodata             const    0x000443dc      0xc  smart_config.o [7]
  .rodata             const    0x000443e8      0xc  smart_config.o [7]
  .rodata             const    0x000443f4      0xc  dns.o [7]
  .rodata             const    0x00044400      0xc  dns.o [7]
  .rodata             const    0x0004440c      0xc  dns.o [7]
  .rodata             const    0x00044418      0xc  wwd_wifi.o [7]
  .rodata             const    0x00044424      0xc  wwd_wifi.o [7]
  .rodata             const    0x00044430      0xc  wwd_wifi.o [7]
  .rodata             const    0x0004443c      0xc  wwd_wifi.o [7]
  .rodata             const    0x00044448      0xc  tcp_in.o [7]
  .rodata             const    0x00044454      0xc  wwd_management.o [7]
  .rodata             const    0x00044460      0xc  wwd_management.o [7]
  .rodata             const    0x0004446c      0xc  dns_redirect.o [7]
  .rodata             const    0x00044478      0xc  dns_redirect.o [7]
  .rodata             const    0x00044484      0xc  wwd_ap.o [7]
  .rodata             const    0x00044490      0xc  wwd_ap.o [7]
  .rodata             const    0x0004449c      0xc  wwd_ap.o [7]
  .rodata             const    0x000444a8      0xc  wwd_internal.o [7]
  .rodata             const    0x000444b4      0xc  dhcp_server.o [7]
  .rodata             const    0x000444c0      0xc  wiced_lib.o [7]
  .text               ro code  0x000444cc      0xc  cstartup_M.o [8]
  .rodata             const    0x000444d8      0x8  sockets.o [7]
  .rodata             const    0x000444e0      0x8  sockets.o [7]
  .rodata             const    0x000444e8      0x8  sockets.o [7]
  .rodata             const    0x000444f0      0x8  sockets.o [7]
  .rodata             const    0x000444f8      0x8  sockets.o [7]
  .rodata             const    0x00044500      0x8  sockets.o [7]
  .rodata             const    0x00044508      0x8  wifimgr.o [7]
  .rodata             const    0x00044510      0x8  wifimgr.o [7]
  .rodata             const    0x00044518      0x8  wifimgr.o [7]
  .rodata             const    0x00044520      0x8  wifimgr.o [7]
  .rodata             const    0x00044528      0x8  wifimgr.o [7]
  .rodata             const    0x00044530      0x8  wifimgr.o [7]
  .rodata             const    0x00044538      0x8  wifimgr.o [7]
  .rodata             const    0x00044540      0x8  wifimgr.o [7]
  .rodata             const    0x00044548      0x8  wifimgr.o [7]
  .rodata             const    0x00044550      0x8  wifimgr.o [7]
  .rodata             const    0x00044558      0x8  wifimgr.o [7]
  .rodata             const    0x00044560      0x8  wifimgr.o [7]
  .rodata             const    0x00044568      0x8  wifimgr.o [7]
  .rodata             const    0x00044570      0x8  wifimgr.o [7]
  .rodata             const    0x00044578      0x8  SDPCM.o [7]
  .rodata             const    0x00044580      0x8  memp.o [7]
  .rodata             const    0x00044588      0x8  memp.o [7]
  .rodata             const    0x00044590      0x8  memp.o [7]
  .rodata             const    0x00044598      0x8  memp.o [7]
  .rodata             const    0x000445a0      0x8  memp.o [7]
  .rodata             const    0x000445a8      0x8  memp.o [7]
  .rodata             const    0x000445b0      0x8  memp.o [7]
  .rodata             const    0x000445b8      0x8  memp.o [7]
  .rodata             const    0x000445c0      0x8  wwd_thread.o [7]
  .rodata             const    0x000445c8      0x8  smart_config.o [7]
  .rodata             const    0x000445d0      0x8  smart_config.o [7]
  .rodata             const    0x000445d8      0x8  smart_config.o [7]
  .rodata             const    0x000445e0      0x8  dns.o [7]
  .rodata             const    0x000445e8      0x8  dns.o [7]
  .rodata             const    0x000445f0      0x8  tcp.o [7]
  .rodata             const    0x000445f8      0x8  wwd_wifi.o [7]
  .rodata             const    0x00044600      0x8  wwd_wifi.o [7]
  .rodata             const    0x00044608      0x8  wwd_wifi.o [7]
  .rodata             const    0x00044610      0x8  wwd_wifi.o [7]
  .rodata             const    0x00044618      0x8  wwd_wifi.o [7]
  .rodata             const    0x00044620      0x8  tcp_in.o [7]
  .rodata             const    0x00044628      0x8  tcp_in.o [7]
  .rodata             const    0x00044630      0x8  tcp_in.o [7]
  .rodata             const    0x00044638      0x8  tcp_in.o [7]
  .rodata             const    0x00044640      0x8  wwd_management.o [7]
  .rodata             const    0x00044648      0x8  wwd_management.o [7]
  .rodata             const    0x00044650      0x8  ostimers.o [7]
  .rodata             const    0x00044658      0x8  tasks.o [7]
  .rodata             const    0x00044660      0x8  etharp.o [7]
  .rodata             const    0x00044668      0x8  etharp.o [7]
  .rodata             const    0x00044670      0x8  etharp.o [7]
  .rodata             const    0x00044678      0x8  etharp.o [7]
  .rodata             const    0x00044680      0x8  wiced_network.o [7]
  .rodata             const    0x00044688      0x8  wwd_ap.o [7]
  .rodata             const    0x00044690      0x8  wwd_network.o [7]
  .rodata             const    0x00044698      0x8  dhcp_server.o [7]
  .rodata             const    0x000446a0      0x8  dhcp_server.o [7]
  .rodata             const    0x000446a8      0x8  dhcp_server.o [7]
  .rodata             const    0x000446b0      0x8  dhcp_server.o [7]
  .text               ro code  0x000446b8      0x6  startup_lpc54100_EWARM.o [1]
  .rodata             const    0x000446c0      0x4  smart_config.o [7]
  .rodata             const    0x000446c4      0x4  smart_config.o [7]
  .rodata             const    0x000446c8      0x4  ip_addr.o [7]
  .rodata             const    0x000446cc      0x4  ip_addr.o [7]
  .rodata             const    0x000446d0      0x4  dhcp_server.o [7]
  .rodata             const    0x000446d4      0x4  dhcp_server.o [7]
  .rodata             const    0x000446d8      0x4  dhcp_server.o [7]
  .rodata             const    0x000446dc      0x4  dhcp_server.o [7]
  .rodata             const    0x000446e0      0x4  dhcp_server.o [7]
  .text               ro code  0x000446e4      0x4  startup_lpc54100_EWARM.o [1]
  .text               ro code  0x000446e8      0x4  startup_lpc54100_EWARM.o [1]
  .text               ro code  0x000446ec      0x4  startup_lpc54100_EWARM.o [1]
  .text               ro code  0x000446f0      0x4  startup_lpc54100_EWARM.o [1]
  .text               ro code  0x000446f4      0x4  startup_lpc54100_EWARM.o [1]
  .text               ro code  0x000446f8      0x4  startup_lpc54100_EWARM.o [1]
  .text               ro code  0x000446fc      0x4  startup_lpc54100_EWARM.o [1]
  .text               ro code  0x00044700      0x4  startup_lpc54100_EWARM.o [1]
  .text               ro code  0x00044704      0x0  cstart_clearlocks.o [8]
  .text               ro code  0x00044704      0x0  cstart_closeall.o [8]
  .rodata             const    0x00044704      0x0  zero_init3.o [8]
  .rodata             const    0x00044704      0x0  packbits_init.o [8]
  Initializer bytes   const    0x00044704    0x190  <for P2 s0>
                             - 0x00044894  0x3878c

"P2", part 1 of 2:                         0x17d84
  HEAP                         0x02000100  0x11000  <Block>
    HEAP              uninit   0x02000100  0x11000  <Block tail>
  .bss                zero     0x02011100   0x517c  memp.o [7]
  .bss                zero     0x0201627c    0x500  smart_config.o [7]
  .bss                zero     0x0201677c    0x460  dns.o [7]
  .bss                zero     0x02016bdc     0x64  dhcp_server.o [7]
  .bss                zero     0x02016c40    0x33a  fogCloud.o [1]
  .bss                zero     0x02016f7a      0x6  ZigBeeSerialLink.o [1]
  .bss                zero     0x02016f80    0x280  user_uart.o [1]
  .bss                zero     0x02017200    0x204  dns.o [7]
  .bss                zero     0x02017404    0x1d8  dlmalloc.o [7]
  .bss                zero     0x020175dc    0x18c  user_uart.o [1]
  .bss                zero     0x02017768    0x180  sockets.o [7]
  .bss                zero     0x020178e8     0x3c  wifimgr.o [7]
  .bss                zero     0x02017924     0x3c  wifimgr.o [7]
  .bss                zero     0x02017960     0x3c  wifimgr.o [7]
  .bss                zero     0x0201799c     0x3c  SDPCM.o [7]
  .bss                zero     0x020179d8     0x3c  wiced_network.o [7]
  .bss                zero     0x02017a14     0x38  wiced_network.o [7]
  .bss                zero     0x02017a4c     0x38  xsyslock_mtx.o [5]
  .bss                zero     0x02017a84     0x34  tasks.o [7]
  .bss                zero     0x02017ab8     0x30  ZigBeeNetwork.o [1]
  .bss                zero     0x02017ae8     0x30  mftest.o [7]
  .bss                zero     0x02017b18     0x30  mftest.o [7]
  .bss                zero     0x02017b48     0x28  wlan_bus_spi.o [1]
  .bss                zero     0x02017b70     0x28  smart_config.o [7]
  .bss                zero     0x02017b98     0x28  dnsclient.o [7]
  .bss                zero     0x02017bc0     0x28  wiced_ping.o [7]
  .bss                zero     0x02017be8     0x28  dhcp.o [7]
  .bss                zero     0x02017c10     0x24  mico_platform_common.o [1]
  .bss                zero     0x02017c34     0x24  power_control.o [1]
  .bss                zero     0x02017c58     0x24  wifimgr.o [7]
  .bss                zero     0x02017c7c     0x20  config_server.o [1]
  .bss                zero     0x02017c9c     0x20  platform_i2c.o [1]
  .bss                zero     0x02017cbc     0x20  smart_config.o [7]
  .bss                zero     0x02017cdc     0x20  wiced_network.o [7]
  .bss                zero     0x02017cfc     0x20  dhcp_server.o [7]
  .bss                zero     0x02017d1c     0x18  platform.o [1]
  .bss                zero     0x02017d34     0x18  mftest.o [7]
  .bss                zero     0x02017d4c     0x18  dlmalloc.o [7]
  .bss                zero     0x02017d64     0x14  wifimgr.o [7]
  .bss                zero     0x02017d78     0x14  mftest.o [7]
  .bss                zero     0x02017d8c     0x14  tcp_in.o [7]
  .bss                zero     0x02017da0     0x14  ostimers.o [7]
  .bss                zero     0x02017db4     0x14  ostimers.o [7]
  .bss                zero     0x02017dc8     0x14  tasks.o [7]
  .bss                zero     0x02017ddc     0x14  tasks.o [7]
  .bss                zero     0x02017df0     0x14  tasks.o [7]
  .bss                zero     0x02017e04     0x14  tasks.o [7]
  .bss                zero     0x02017e18     0x14  tasks.o [7]
  .bss                zero     0x02017e2c     0x14  wiced_network.o [7]
  .bss                zero     0x02017e40     0x14  wiced_network.o [7]
  .bss                zero     0x02017e54     0x10  MicoFogCloud.o [1]
  .bss                zero     0x02017e64     0x10  platform.o [1]
  .bss                zero     0x02017e74     0x10  platform_flash.o [1]
                             - 0x02017e84  0x17d84

"P2", part 2 of 2:                          0x1b80
  P2 s0                        0x03400000    0x41d  <Init block>
    __DLIB_PERTHREAD  inited   0x03400000     0x8c  rand.o [5]
    __DLIB_PERTHREAD  inited   0x0340008c     0x88  localeconv.o [5]
    __DLIB_PERTHREAD  inited   0x03400114     0x74  setlocale.o [5]
    .data             inited   0x03400188     0x64  platform_init.o [1]
    .data             inited   0x034001ec     0x40  memp.o [7]
    .data             inited   0x0340022c     0x40  xfiles.o [5]
    .data             inited   0x0340026c     0x40  xfiles.o [5]
    .data             inited   0x034002ac     0x40  xfiles.o [5]
    .data             inited   0x034002ec     0x20  mico_mdns.o [1]
    .data             inited   0x0340030c     0x20  xfiles.o [5]
    .data             inited   0x0340032c      0xc  platform.o [1]
    .data             inited   0x03400338     0x14  FogCloudUtils.o [4]
    .data             inited   0x0340034c     0x10  platform.o [1]
    .data             inited   0x0340035c      0xc  wwd_internal.o [7]
    .data             inited   0x03400368     0x10  ZigBeeControlBridge.o [1]
    .data             inited   0x03400378     0x10  tcp.o [7]
    .data             inited   0x03400388      0x8  MicoFogCloudConfigServer.o [1]
    .data             inited   0x03400390      0x8  ZigBeeControlBridge.o [1]
    .data             inited   0x03400398      0x4  json_object.o [1]
    .data             inited   0x0340039c      0x4  json_object.o [1]
    .data             inited   0x034003a0      0x4  json_tokener.o [1]
    .data             inited   0x034003a4      0x4  mico_config.o [1]
    .data             inited   0x034003a8      0x4  platform_init.o [1]
    .data             inited   0x034003ac      0x4  platform_init.o [1]
    .data             inited   0x034003b0      0x4  platform_init.o [1]
    .data             inited   0x034003b4      0x4  platform_init.o [1]
    .data             inited   0x034003b8      0x4  platform_init.o [1]
    .data             inited   0x034003bc      0x4  platform_init.o [1]
    .data             inited   0x034003c0      0x4  platform_init.o [1]
    .data             inited   0x034003c4      0x4  platform_init.o [1]
    .data             inited   0x034003c8      0x4  platform_init.o [1]
    .data             inited   0x034003cc      0x4  platform_init.o [1]
    .data             inited   0x034003d0      0x4  platform_init.o [1]
    .data             inited   0x034003d4      0x4  wifimgr.o [7]
    .data             inited   0x034003d8      0x4  wifimgr.o [7]
    .data             inited   0x034003dc      0x4  wifimgr.o [7]
    .data             inited   0x034003e0      0x4  wifimgr.o [7]
    .data             inited   0x034003e4      0x4  wifimgr.o [7]
    .data             inited   0x034003e8      0x4  SDPCM.o [7]
    .data             inited   0x034003ec      0x4  port.o [7]
    .data             inited   0x034003f0      0x4  mftest.o [7]
    .data             inited   0x034003f4      0x4  mftest.o [7]
    .data             inited   0x034003f8      0x4  smart_config.o [7]
    .data             inited   0x034003fc      0x4  wwd_rtos.o [7]
    .data             inited   0x03400400      0x4  tcp.o [7]
    .data             inited   0x03400404      0x4  wwd_firmware.o [7]
    .data             inited   0x03400408      0x4  wifi.o [7]
    .data             inited   0x0340040c      0x4  tasks.o [7]
    .data             inited   0x03400410      0x4  wwd_ap.o [7]
    .data             inited   0x03400414      0x4  dhcp.o [7]
    __DLIB_PERTHREAD  inited   0x03400418      0x4  errno.o [5]
    .data             inited   0x0340041c      0x1  smart_config.o [7]
  .bss                zero     0x03400600    0x160  dma_5410x.o [1]
  .bss                zero     0x03400760    0x110  user_uart.o [1]
  .bss                zero     0x03400870    0x100  platform_flash.o [1]
  .bss                zero     0x03400970    0x100  smart_config.o [7]
  .bss                zero     0x03400a70    0x100  smart_config.o [7]
  .bss                zero     0x03400b70     0xc8  tasks.o [7]
  .bss                zero     0x03400c38     0xa0  etharp.o [7]
  .bss                zero     0x03400cd8     0x8c  user_uart.o [1]
  .bss                zero     0x03400d64     0x88  wiced_network.o [7]
  .bss                zero     0x03400dec     0x80  mico_mdns.o [1]
  .bss                zero     0x03400e6c     0x80  XShHandles.o [5]
  .bss                zero     0x03400eec     0x70  wifimgr.o [7]
  .bss                zero     0x03400f5c     0x68  platform.o [1]
  .bss                zero     0x03400fc4     0x60  sockets.o [7]
  .bss                zero     0x03401024     0x60  FogCloudMQTTClient.o [4]
  .bss                zero     0x03401084     0x58  mico_cli.o [1]
  .bss                zero     0x034010dc     0x50  mico_system_notification.o [1]
  .bss                zero     0x0340112c     0x50  platform_gpio.o [1]
  .bss                zero     0x0340117c     0x50  smart_config.o [7]
  .bss                zero     0x034011cc     0x50  xfiles.o [5]
  .bss                zero     0x0340121c     0x50  xfiles.o [5]
  .bss                zero     0x0340126c     0x44  FogCloudMQTTClient.o [4]
  .bss                zero     0x034012b0     0x44  netif.o [7]
  .bss                zero     0x034012f4     0x40  system_factory_test.o [1]
  .bss                zero     0x03401334     0x40  memp.o [7]
  .bss                zero     0x03401374     0x40  memp.o [7]
  .bss                zero     0x034013b4     0x40  smart_config.o [7]
  .bss                zero     0x034013f4     0x3c  wifimgr.o [7]
  .bss                zero     0x03401430      0xc  MICOConfigDelegate.o [1]
  .bss                zero     0x03401440     0x10  ZigBeeControlBridge.o [1]
  .bss                zero     0x03401450     0x10  mxchipWNET.o [7]
  .bss                zero     0x03401460     0x10  smart_config.o [7]
  .bss                zero     0x03401470     0x10  ip_addr.o [7]
  .bss                zero     0x03401480      0xc  system_easylink.o [1]
  .bss                zero     0x0340148c      0xc  smart_config.o [7]
  .bss                zero     0x03401498      0xc  dhcp.o [7]
  .bss                zero     0x034014a4      0x8  ZigBeeAttributeReport.o [1]
  .bss                zero     0x034014ac      0x8  wiced_rtos.o [7]
  .bss                zero     0x034014b4      0x8  wifimgr.o [7]
  .bss                zero     0x034014bc      0x8  wifimgr.o [7]
  .bss                zero     0x034014c4      0x8  FogCloudService.o [4]
  .bss                zero     0x034014cc      0x8  smart_config.o [7]
  .bss                zero     0x034014d4      0x8  smart_config.o [7]
  .bss                zero     0x034014dc      0x8  smart_config.o [7]
  .bss                zero     0x034014e4      0x8  dns.o [7]
  .bss                zero     0x034014ec      0x8  wifi.o [7]
  .bss                zero     0x034014f4      0x8  wwd_management.o [7]
  .bss                zero     0x034014fc      0x4  chip_5410x.o [1]
  .bss                zero     0x03401500      0x4  mico_system_init.o [1]
  .bss                zero     0x03401504      0x4  mico_system_para_storage.o [1]
  .bss                zero     0x03401508      0x4  MICOAppEntrance.o [1]
  .bss                zero     0x0340150c      0x4  platform_spi.o [1]
  .bss                zero     0x03401510      0x4  pll_5410x.o [1]
  .bss                zero     0x03401514      0x4  tftp_ota.o [1]
  .bss                zero     0x03401518      0x4  wlan_platform_common.o [1]
  .bss                zero     0x0340151c      0x4  ZigBeeControlBridge.o [1]
  .bss                zero     0x03401520      0x4  ZigBeePDM.o [1]
  .bss                zero     0x03401524      0x4  mxchipWNET.o [7]
  .bss                zero     0x03401528      0x4  mxchipWNET.o [7]
  .bss                zero     0x0340152c      0x4  mxchipWNET.o [7]
  .bss                zero     0x03401530      0x4  mxchipWNET.o [7]
  .bss                zero     0x03401534      0x4  mxchipWNET.o [7]
  .bss                zero     0x03401538      0x4  mxchipWNET.o [7]
  .bss                zero     0x0340153c      0x4  sockets.o [7]
  .bss                zero     0x03401540      0x4  sockets.o [7]
  .bss                zero     0x03401544      0x4  sockets.o [7]
  .bss                zero     0x03401548      0x4  wiced_rtos.o [7]
  .bss                zero     0x0340154c      0x4  wiced_rtos.o [7]
  .bss                zero     0x03401550      0x4  wiced_rtos.o [7]
  .bss                zero     0x03401554      0x4  wifimgr.o [7]
  .bss                zero     0x03401558      0x4  wifimgr.o [7]
  .bss                zero     0x0340155c      0x4  wifimgr.o [7]
  .bss                zero     0x03401560      0x4  wifimgr.o [7]
  .bss                zero     0x03401564      0x4  wifimgr.o [7]
  .bss                zero     0x03401568      0x4  wifimgr.o [7]
  .bss                zero     0x0340156c      0x4  wifimgr.o [7]
  .bss                zero     0x03401570      0x4  wifimgr.o [7]
  .bss                zero     0x03401574      0x4  wifimgr.o [7]
  .bss                zero     0x03401578      0x4  wifimgr.o [7]
  .bss                zero     0x0340157c      0x4  wifimgr.o [7]
  .bss                zero     0x03401580      0x4  wifimgr.o [7]
  .bss                zero     0x03401584      0x4  SDPCM.o [7]
  .bss                zero     0x03401588      0x4  SDPCM.o [7]
  .bss                zero     0x0340158c      0x4  SDPCM.o [7]
  .bss                zero     0x03401590      0x4  SDPCM.o [7]
  .bss                zero     0x03401594      0x4  SDPCM.o [7]
  .bss                zero     0x03401598      0x4  SDPCM.o [7]
  .bss                zero     0x0340159c      0x4  SDPCM.o [7]
  .bss                zero     0x034015a0      0x4  SDPCM.o [7]
  .bss                zero     0x034015a4      0x4  SDPCM.o [7]
  .bss                zero     0x034015a8      0x4  mftest.o [7]
  .bss                zero     0x034015ac      0x4  mftest.o [7]
  .bss                zero     0x034015b0      0x4  mftest.o [7]
  .bss                zero     0x034015b4      0x4  mftest.o [7]
  .bss                zero     0x034015b8      0x4  wwd_thread.o [7]
  .bss                zero     0x034015bc      0x4  wwd_thread.o [7]
  .bss                zero     0x034015c0      0x4  wwd_thread.o [7]
  .bss                zero     0x034015c4      0x4  wwd_thread.o [7]
  .bss                zero     0x034015c8      0x4  smart_config.o [7]
  .bss                zero     0x034015cc      0x4  smart_config.o [7]
  .bss                zero     0x034015d0      0x4  smart_config.o [7]
  .bss                zero     0x034015d4      0x4  smart_config.o [7]
  .bss                zero     0x034015d8      0x4  smart_config.o [7]
  .bss                zero     0x034015dc      0x4  smart_config.o [7]
  .bss                zero     0x034015e0      0x4  smart_config.o [7]
  .bss                zero     0x034015e4      0x4  smart_config.o [7]
  .bss                zero     0x034015e8      0x4  smart_config.o [7]
  .bss                zero     0x034015ec      0x4  smart_config.o [7]
  .bss                zero     0x034015f0      0x4  smart_config.o [7]
  .bss                zero     0x034015f4      0x4  smart_config.o [7]
  .bss                zero     0x034015f8      0x4  smart_config.o [7]
  .bss                zero     0x034015fc      0x4  smart_config.o [7]
  .bss                zero     0x03401600      0x4  smart_config.o [7]
  .bss                zero     0x03401604      0x4  smart_config.o [7]
  .bss                zero     0x03401608      0x4  smart_config.o [7]
  .bss                zero     0x0340160c      0x4  smart_config.o [7]
  .bss                zero     0x03401610      0x4  smart_config.o [7]
  .bss                zero     0x03401614      0x4  smart_config.o [7]
  .bss                zero     0x03401618      0x4  smart_config.o [7]
  .bss                zero     0x0340161c      0x4  wps_host.o [7]
  .bss                zero     0x03401620      0x4  wps_host.o [7]
  .bss                zero     0x03401624      0x4  dns.o [7]
  .bss                zero     0x03401628      0x4  dns.o [7]
  .bss                zero     0x0340162c      0x4  tcp.o [7]
  .bss                zero     0x03401630      0x4  tcp.o [7]
  .bss                zero     0x03401634      0x4  tcp.o [7]
  .bss                zero     0x03401638      0x4  tcp.o [7]
  .bss                zero     0x0340163c      0x4  tcp.o [7]
  .bss                zero     0x03401640      0x4  tcp.o [7]
  .bss                zero     0x03401644      0x4  tcp.o [7]
  .bss                zero     0x03401648      0x4  tcp.o [7]
  .bss                zero     0x0340164c      0x4  wwd_wifi.o [7]
  .bss                zero     0x03401650      0x4  wwd_wifi.o [7]
  .bss                zero     0x03401654      0x4  wwd_wifi.o [7]
  .bss                zero     0x03401658      0x4  wwd_wifi.o [7]
  .bss                zero     0x0340165c      0x4  wwd_wifi.o [7]
  .bss                zero     0x03401660      0x4  wifi.o [7]
  .bss                zero     0x03401664      0x4  wifi.o [7]
  .bss                zero     0x03401668      0x4  wifi.o [7]
  .bss                zero     0x0340166c      0x4  wifi.o [7]
  .bss                zero     0x03401670      0x4  wifi.o [7]
  .bss                zero     0x03401674      0x4  tcp_in.o [7]
  .bss                zero     0x03401678      0x4  tcp_in.o [7]
  .bss                zero     0x0340167c      0x4  tcp_in.o [7]
  .bss                zero     0x03401680      0x4  tcp_in.o [7]
  .bss                zero     0x03401684      0x4  tcp_in.o [7]
  .bss                zero     0x03401688      0x4  tcp_in.o [7]
  .bss                zero     0x0340168c      0x4  igmp.o [7]
  .bss                zero     0x03401690      0x4  igmp.o [7]
  .bss                zero     0x03401694      0x4  igmp.o [7]
  .bss                zero     0x03401698      0x4  igmp.o [7]
  .bss                zero     0x0340169c      0x4  lwiptcpip.o [7]
  .bss                zero     0x034016a0      0x4  lwiptcpip.o [7]
  .bss                zero     0x034016a4      0x4  lwiptcpip.o [7]
  .bss                zero     0x034016a8      0x4  ostimers.o [7]
  .bss                zero     0x034016ac      0x4  ostimers.o [7]
  .bss                zero     0x034016b0      0x4  ostimers.o [7]
  .bss                zero     0x034016b4      0x4  ostimers.o [7]
  .bss                zero     0x034016b8      0x4  tasks.o [7]
  .bss                zero     0x034016bc      0x4  tasks.o [7]
  .bss                zero     0x034016c0      0x4  tasks.o [7]
  .bss                zero     0x034016c4      0x4  tasks.o [7]
  .bss                zero     0x034016c8      0x4  tasks.o [7]
  .bss                zero     0x034016cc      0x4  tasks.o [7]
  .bss                zero     0x034016d0      0x4  tasks.o [7]
  .bss                zero     0x034016d4      0x4  tasks.o [7]
  .bss                zero     0x034016d8      0x4  tasks.o [7]
  .bss                zero     0x034016dc      0x4  tasks.o [7]
  .bss                zero     0x034016e0      0x4  tasks.o [7]
  .bss                zero     0x034016e4      0x4  tasks.o [7]
  .bss                zero     0x034016e8      0x4  tasks.o [7]
  .bss                zero     0x034016ec      0x4  tasks.o [7]
  .bss                zero     0x034016f0      0x4  mxchip_debug.o [7]
  .bss                zero     0x034016f4      0x4  mxchip_debug.o [7]
  .bss                zero     0x034016f8      0x4  dnsclient.o [7]
  .bss                zero     0x034016fc      0x4  ip.o [7]
  .bss                zero     0x03401700      0x4  ip.o [7]
  .bss                zero     0x03401704      0x4  ip.o [7]
  .bss                zero     0x03401708      0x4  ip.o [7]
  .bss                zero     0x0340170c      0x4  ip.o [7]
  .bss                zero     0x03401710      0x4  udp.o [7]
  .bss                zero     0x03401714      0x4  wiced_network.o [7]
  .bss                zero     0x03401718      0x4  wiced_network.o [7]
  .bss                zero     0x0340171c      0x4  wwd_ap.o [7]
  .bss                zero     0x03401720      0x4  wwd_internal.o [7]
  .bss                zero     0x03401724      0x4  lwiptimers.o [7]
  .bss                zero     0x03401728      0x4  lwiptimers.o [7]
  .bss                zero     0x0340172c      0x4  wiced_ping.o [7]
  .bss                zero     0x03401730      0x4  netif.o [7]
  .bss                zero     0x03401734      0x4  netif.o [7]
  .bss                zero     0x03401738      0x4  raw.o [7]
  .bss                zero     0x0340173c      0x4  logging.o [7]
  .bss                zero     0x03401740      0x4  logging.o [7]
  .bss                zero     0x03401744      0x4  MQTTPacket.o [4]
  .bss                zero     0x03401748      0x4  xgetmemchunk.o [5]
  .bss                zero     0x0340174c      0x2  SDPCM.o [7]
  .bss                zero     0x0340174e      0x2  tcp.o [7]
  .bss                zero     0x03401750      0x2  tcp_in.o [7]
  .bss                zero     0x03401752      0x2  ip.o [7]
  .bss                zero     0x03401754      0x2  wiced_network.o [7]
  .bss                zero     0x03401756      0x2  wiced_ping.o [7]
  .bss                zero     0x03401758      0x1  mico_system_power_daemon.o [1]
  .bss                zero     0x03401759      0x1  platform_uart.o [1]
  .bss                zero     0x0340175a      0x1  printbuf.o [1]
  .bss                zero     0x0340175b      0x1  wifimgr.o [7]
  .bss                zero     0x0340175c      0x1  wifimgr.o [7]
  .bss                zero     0x0340175d      0x1  wifimgr.o [7]
  .bss                zero     0x0340175e      0x1  SDPCM.o [7]
  .bss                zero     0x0340175f      0x1  SDPCM.o [7]
  .bss                zero     0x03401760      0x1  SDPCM.o [7]
  .bss                zero     0x03401761      0x1  SDPCM.o [7]
  .bss                zero     0x03401762      0x1  SDPCM.o [7]
  .bss                zero     0x03401763      0x1  SDPCM.o [7]
  .bss                zero     0x03401764      0x1  SDPCM.o [7]
  .bss                zero     0x03401765      0x1  wwd_thread.o [7]
  .bss                zero     0x03401766      0x1  wwd_thread.o [7]
  .bss                zero     0x03401767      0x1  wwd_thread.o [7]
  .bss                zero     0x03401768      0x1  smart_config.o [7]
  .bss                zero     0x03401769      0x1  smart_config.o [7]
  .bss                zero     0x0340176a      0x1  smart_config.o [7]
  .bss                zero     0x0340176b      0x1  smart_config.o [7]
  .bss                zero     0x0340176c      0x1  wps_host.o [7]
  .bss                zero     0x0340176d      0x1  wps_host.o [7]
  .bss                zero     0x0340176e      0x1  dns.o [7]
  .bss                zero     0x0340176f      0x1  dns.o [7]
  .bss                zero     0x03401770      0x1  tcp.o [7]
  .bss                zero     0x03401771      0x1  wwd_wifi.o [7]
  .bss                zero     0x03401772      0x1  wwd_wifi.o [7]
  .bss                zero     0x03401773      0x1  wifi.o [7]
  .bss                zero     0x03401774      0x1  tcp_in.o [7]
  .bss                zero     0x03401775      0x1  tcp_in.o [7]
  .bss                zero     0x03401776      0x1  etharp.o [7]
  .bss                zero     0x03401777      0x1  wiced_network.o [7]
  .bss                zero     0x03401778      0x1  wiced_network.o [7]
  .bss                zero     0x03401779      0x1  wwd_ap.o [7]
  .bss                zero     0x0340177a      0x1  wwd_bus_protocol.o [7]
  .bss                zero     0x0340177b      0x1  wwd_bus_protocol.o [7]
  .bss                zero     0x0340177c      0x1  netif.o [7]
  CSTACK                       0x03401780    0x400  <Block>
    CSTACK            uninit   0x03401780    0x400  <Block tail>
                             - 0x03401b80   0x1b80


*******************************************************************************
*** INIT TABLE
***

          Address     Size
          -------     ----
Zero (__iar_zero_init3)
    3 destination ranges, total size 0x7f01:
          0x02011100  0x517c
          0x0201627c  0x1c08
          0x03400600  0x117d

Copy/packbits (__iar_packbits_init3)
    1 source range, total size 0x190 (37% of destination):
          0x00044704   0x190
    1 destination range, total size 0x41d:
          0x03400000   0x41d



*******************************************************************************
*** MODULE SUMMARY
***

    Module                      ro code  ro data  rw data
    ------                      -------  -------  -------
E:\work\13.WiFi_Mxchip\SDK_MiCOKit_v2.3.0.2\Build\Cloud_RGB_LED\MiCOKit-LPC5410x\obj_EWARM: [1]
    CheckSumUtils.o                 122
    HTTPUtils.o                   2 872
    MICOAppEntrance.o               296                 4
    MICOBonjour.o                   832
    MICOConfigDelegate.o          1 264                12
    MicoFogCloud.o                1 284                16
    MicoFogCloudConfigServer.o    2 220        3        8
    Retarget.o                       20
    RingBufferUtils.o               198
    SocketUtils.o                   168
    StringUtils.o                 2 024
    URLUtils.o                      364
    ZigBeeAttributeReport.o         724                 8
    ZigBeeControlBridge.o         5 266        9       44
    ZigBeeNetwork.o               1 400                48
    ZigBeePDM.o                   1 376                 4
    ZigBeeSerialLink.o              836                 6
    ZigBeeZLL.o                     196
    arraylist.o                     212
    chip_5410x.o                                        4
    clock_5410x.o                   316
    config_server.o               3 020                32
    config_server_menu.o            376
    crt0_EWARM.o                     28
    dma_5410x.o                     148               352
    fogCloud.o                    1 208               826
    fpu_init.o                       68
    hardfault.o                     932
    iap.o                           114
    json_object.o                 1 632       39        8
    json_tokener.o                3 756        2        4
    json_util.o                     228
    linkhash.o                      844
    mico_cli.o                    3 680      548       88
    mico_config.o                             17        4
    mico_mdns.o                   3 532       12      160
    mico_platform_common.o        1 344                36
    mico_system_init.o              184                 4
    mico_system_notification.o      540                80
    mico_system_para_storage.o      972                 4
    mico_system_power_daemon.o      392                 1
    platform.o                      738      467      172
    platform_flash.o              1 176               272
    platform_gpio.o                 916                80
    platform_i2c.o                  294                32
    platform_init.o                 320       55      144
    platform_mcu_powersave.o         30
    platform_rtc.o                   12
    platform_spi.o                  696                 4
    platform_uart.o               1 696                 1
    platform_watchdog.o               4
    pll_5410x.o                     560                 4
    power_control.o                  60                36
    printbuf.o                      310                 1
    spi_flash.o                     848
    spi_flash_platform.o             48
    startup_lpc54100_EWARM.o        424
    syscon_5410x.o                   56
    system_easylink.o             2 624                12
    system_easylink_delegate.o        4
    system_factory_test.o           972                64
    system_misc.o                   952
    tftp_ota.o                      820                 4
    uart_5410x.o                    136
    user_main.o                   1 620
    user_uart.o                   1 212             1 448
    wlan_bus_spi.o                  940                40
    wlan_platform.o                  16
    wlan_platform_common.o          232                 4
    -----------------------------------------------------
    Total:                       62 704    1 152    4 071

E:\work\13.WiFi_Mxchip\SDK_MiCOKit_v2.3.0.2\MICO\system\tftp_ota: [2]
    tftpc.o                       1 716
    -----------------------------------------------------
    Total:                        1 716

command line: [3]
    -----------------------------------------------------
    Total:

FogCloud_cm4_release.a: [4]
    FogCloudMQTTClient.o          2 048       16      164
    FogCloudService.o             4 288                 8
    FogCloudServiceVersion.o         20
    FogCloudUtils.o               5 612        7       20
    MQTTClient.o                  1 712
    MQTTConnectClient.o             744
    MQTTDeserializePublish.o        248
    MQTTMICO.o                      678
    MQTTPacket.o                    500                 4
    MQTTSerializePublish.o          268
    MQTTSubscribeClient.o           312
    -----------------------------------------------------
    Total:                       16 430       23      196

dl7M_tlf.a: [5]
    XShHandles.o                    224               128
    abort.o                           6
    div.o                            14
    errno.o                          12        1        4
    exit.o                            4
    fclose.o                        122
    fflush.o                        176
    fputc.o                          86
    fseek.o                          34
    isxxx.o                          60
    localeconv.o                    108       51      136
    printf.o                         36
    putchar.o                        12
    rand.o                          224       53      140
    setlocale.o                      36       44      116
    snprintf.o                       68
    sprintf.o                        52
    srand.o                          32
    sscanf.o                         36
    strcasecmp.o                     70
    strcat.o                         28
    strdup.o                         24
    strncasecmp.o                    78
    strncat.o                        40
    strncmp.o                        42
    strnlen.o                        22
    strtoul.o                         4
    tolower.o                        20
    toupper.o                        24
    vprintf.o                        24
    vsnprint.o                       60
    vsprintf.o                       44
    xcloseall.o                      88
    xencoding_sb.o                   96
    xfgpos.o                         12
    xfiles.o                                  85      384
    xfofind.o                       124
    xfspos.o                        214
    xfwprep.o                       182
    xgetmemchunk.o                   44                 4
    xlocale_c.o                      90
    xmbcurmax.o                      10
    xmbtowc.o                        32
    xprintffull.o                 4 438
    xprout.o                         22
    xscanffull.o                  3 280
    xsnprout.o                       26
    xsprout.o                        10
    xsscin.o                         30
    xstoflt.o                       440
    xstoll.o                        164
    xstopfx.o                       292
    xstoul.o                        408
    xstoull.o                       432
    xstoxflt.o                      536
    xsyslock.o                       32
    xsyslock_mtx.o                  348                56
    xtls.o                            2
    xwctob.o                         64
    xwctomb.o                        26
    -----------------------------------------------------
    Total:                       13 264      234      968

m7M_tls.a: [6]
    DblAdd.o                        232
    DblCmpEq.o                       32
    DblCmpGe.o                       46
    DblCmpLe.o                       46
    DblDiv.o                        598
    DblMul.o                        418
    DblSub.o                        384
    DblToFlt.o                      144
    DblToI32.o                       88
    DblToI64.o                      122
    I32ToDbl.o                       48
    fpinit_M.o                       34
    xdnorm.o                         66
    xdscale.o                       280
    xdtento.o                       512
    xdunscal.o                       86
    xstold.o                        360
    -----------------------------------------------------
    Total:                        3 496

mxchipWNet_cm4f_spi.a: [7]
    SDPCM.o                       4 124      266      109
    aes.o                         2 914   10 328
    aes_wrap.o                       48       20
    api_lib.o                     1 504
    api_msg.o                     3 756
    arc4.o                          224
    def.o                            54
    dhcp.o                        3 872        2       56
    dhcp_server.o                 1 616      132      132
    dlmalloc.o                    9 616               496
    dns.o                         2 028      272    1 654
    dns_redirect.o                  492       24
    dnsclient.o                     100                44
    etharp.o                      2 528      172      161
    heap_3.o                         56
    iar_mutex.o                      28
    icmp.o                          388
    igmp.o                        1 384                16
    inet_chksum.o                   368
    init.o                           32
    ip.o                          1 204                22
    ip_addr.o                       602        8       16
    list.o                          154
    logging.o                        68                 8
    lwiptcpip.o                     636       16       12
    lwiptimers.o                    768                 8
    md5.o                         2 470
    memp.o                          440      409   21 052
    mftest.o                        936      391      164
    mxchipWNET.o                  2 090       60       40
    mxchip_debug.o                   20                 8
    mxchipbesl.o                     12
    netbuf.o                        218
    netif.o                         856                77
    netifapi.o                       72
    ostimers.o                      880        8       56
    pbuf.o                        1 260
    port.o                          236        1        4
    portasm.o                       168
    queue.o                       1 318
    raw.o                           460                 4
    read_wifi_firmware.o             24
    smart_config.o               10 212    1 475    2 153
    sockets.o                     6 604      236      492
    sys.o                            40
    sys_arch.o                      672
    tasks.o                       2 984       50      412
    tcp.o                         3 588       32       55
    tcp_in.o                      5 524      268       48
    tcp_out.o                     3 266
    tcpip.o                       1 576
    udp.o                         1 808      160        4
    wiced_lib.o                     140       12
    wiced_network.o               1 028       28      336
    wiced_ping.o                    400                46
    wiced_rtos.o                  1 998       44       20
    wifi.o                        1 088       49       33
    wifimgr.o                     9 756    2 403      495
    wps_host.o                       76                10
    wwd_ap.o                      1 170       61        9
    wwd_buffer.o                    146
    wwd_bus_protocol.o            1 780        2        2
    wwd_firmware.o                  768      782        4
    wwd_internal.o                  608       17       16
    wwd_management.o                580       40        8
    wwd_network.o                   380        8
    wwd_rtos.o                      304        1        4
    wwd_thread.o                    584        8       19
    wwd_wifi.o                    5 312      476       22
    -----------------------------------------------------
    Total:                      112 416   18 261   28 327

rt7M_tl.a: [8]
    ABImemclr.o                       6
    ABImemclr4.o                      6
    ABImemcpy_unaligned.o           118
    ABImemmove_unaligned.o          120
    ABImemset.o                     102
    ABImemset48.o                    58
    I64DivMod.o                     238
    I64DivZer.o                       2
    I64Shl.o                         34
    U64Shr.o                         30
    cexit.o                          18
    cmain.o                          26
    cstart_clearlocks.o
    cstart_closeall.o
    cstartup_M.o                     12
    data_init.o                      40
    memchr.o                         88
    memcmp_unaligned.o               98
    packbits_init.o                 208
    strchr.o                         22
    strcmp_unaligned.o               66
    strcpy_unaligned.o               68
    strlen.o                         54
    strncpy_unaligned.o             108
    zero_init3.o                     64
    -----------------------------------------------------
    Total:                        1 586

shb_l.a: [9]
    close.o                          26
    exit.o                           20
    lseek.o                          76
    remove.o                         22
    -----------------------------------------------------
    Total:                          144

    Gaps                             74       12      487
    Linker created                            60   70 656
---------------------------------------------------------
    Grand Total:                211 830   19 742  104 705


*******************************************************************************
*** ENTRY LIST
***

Entry                      Address    Size  Type      Object
-----                      -------    ----  ----      ------
.iar.init_table$$Base   0x00043550           --   Gb  - Linker created -
.iar.init_table$$Limit  0x0004358c           --   Gb  - Linker created -
.intvec$$Base           0x0000c000           --   Gb  - Linker created -
.intvec$$Limit          0x0000c108           --   Gb  - Linker created -
?main                   0x00043971          Code  Gb  cmain.o [8]
AddLength               0x00038d41    0x16  Code  Lc  md5.o [7]
AesCbcEncrypt           0x000284a9    0x42  Code  Gb  aes.o [7]
AesEncrypt              0x00027f99   0x4fe  Code  Lc  aes.o [7]
AesSetIV                0x000284eb    0x30  Code  Gb  aes.o [7]
AesSetKey               0x00027f79    0x20  Code  Gb  aes.o [7]
AesSetKeyLocal          0x00027a49   0x530  Code  Lc  aes.o [7]
Airkiss_stop            0x0000cfff     0x8  Code  Gb  smart_config.o [7]
Airkiss_success         0x0000c2ad    0xa0  Code  Lc  smart_config.o [7]
ApListAdvCallback       0x0000f23b    0x1a  Code  Gb  mico_system_notification.o [1]
ApListCallback          0x0000f221    0x1a  Code  Gb  mico_system_notification.o [1]
Arc4Process             0x00016e3b    0x44  Code  Gb  arc4.o [7]
Arc4SetKey              0x00016dc1    0x4e  Code  Gb  arc4.o [7]
BonjourNotify_SYSWillPoerOffHandler
                        0x00035f9d    0x18  Code  Gb  mico_mdns.o [1]
BonjourNotify_WifiStatusHandler
                        0x00035f6d    0x30  Code  Gb  mico_mdns.o [1]
ByteReverseWord32       0x000279c1    0x18  Code  Lc  aes.o [7]
ByteReverseWords        0x000279d9    0x20  Code  Lc  aes.o [7]
CFG_PRIO_BITS           0x00043f28     0x4  Data  Gb  mico_config.o [1]
CRC16_Final             0x0002de59    0x1c  Code  Gb  CheckSumUtils.o [1]
CRC16_Init              0x0002de1d     0x6  Code  Gb  CheckSumUtils.o [1]
CRC16_Update            0x0002de23    0x36  Code  Gb  CheckSumUtils.o [1]
CRC8Table               0x00042604   0x100  Data  Lc  smart_config.o [7]
CSTACK$$Base            0x03401780           --   Gb  - Linker created -
CSTACK$$Limit           0x03401b80           --   Gb  - Linker created -
CYASSL_MSG              0x0002df03    0x14  Code  Gb  logging.o [7]
CheckNetLink            0x0000ec39    0x60  Code  Gb  mxchipWNET.o [7]
Chip_Clock_DisablePeriphClock
                        0x0002d61d    0x1a  Code  Gb  clock_5410x.o [1]
Chip_Clock_EnablePeriphClock
                        0x0002d601    0x1c  Code  Gb  clock_5410x.o [1]
Chip_Clock_GetAsyncSyscon_ClockRate
                        0x0002d649    0x58  Code  Gb  clock_5410x.o [1]
Chip_Clock_GetMainClockSource
                        0x0002d6a1    0x12  Code  Gb  clock_5410x.o [1]
Chip_Clock_GetMain_A_ClockRate
                        0x0002d5a5    0x16  Code  Gb  clock_5410x.o [1]
Chip_Clock_GetMain_B_ClockRate
                        0x0002d5bf    0x38  Code  Gb  clock_5410x.o [1]
Chip_Clock_GetSystemPLLInClockRate
                        0x00036783    0x2c  Code  Gb  pll_5410x.o [1]
Chip_Clock_GetSystemPLLOutClockRate
                        0x00036839    0x30  Code  Gb  pll_5410x.o [1]
Chip_Clock_GetSystemPLLOutFromSetup
                        0x000367af    0x8a  Code  Gb  pll_5410x.o [1]
Chip_DMA_InitChannel    0x0002e089    0x52  Code  Gb  dma_5410x.o [1]
Chip_DMA_StartTransfer  0x0002e0e5    0x38  Code  Gb  dma_5410x.o [1]
Chip_DMA_Table          0x03400600   0x160  Data  Gb  dma_5410x.o [1]
Chip_IAP_CopyRamToFlash
                        0x000365df    0x1e  Code  Gb  iap.o [1]
Chip_IAP_ErasePage      0x00036609     0x8  Code  Gb  iap.o [1]
Chip_IAP_EraseSector    0x000365fd     0x8  Code  Gb  iap.o [1]
Chip_IAP_PreSectorForReadWrite
                        0x000365cd    0x12  Code  Gb  iap.o [1]
Chip_SYSCON_PeriphReset
                        0x0002dfc9    0x30  Code  Gb  syscon_5410x.o [1]
Chip_UART_DeInit        0x0002e055    0x22  Code  Gb  uart_5410x.o [1]
Chip_UART_Init          0x0002e001    0x54  Code  Gb  uart_5410x.o [1]
CloseAirkiss            0x0000ed19     0xa  Code  Gb  mxchipWNET.o [7]
CloseEasylink           0x0000ed05     0xa  Code  Gb  mxchipWNET.o [7]
CloseEasylink2          0x0000ed0f     0xa  Code  Gb  mxchipWNET.o [7]
ConfigIncommingJsonMessageUAP
                        0x000341fd   0x1a2  Code  Gb  system_easylink.o [1]
ConnectNetwork          0x0003d959    0x8e  Code  Gb  MQTTMICO.o [4]
Context                 0x02017c94     0x4  Data  Lc  config_server.o [1]
Context                 0x0340038c     0x4  Data  Lc  MicoFogCloudConfigServer.o [1]
CreateSimpleHTTPMessageNoCopy
                        0x0003ba81    0x64  Code  Gb  HTTPUtils.o [1]
CreateSimpleHTTPOKMessage
                        0x0003ba3d    0x38  Code  Gb  HTTPUtils.o [1]
DBG_PrintNode           0x000317ad     0xa  Code  Gb  ZigBeeNetwork.o [1]
DMAInit                 0x000210d1    0x32  Code  Gb  platform_init.o [1]
DMA_IRQHandler          0x0002122d    0xb2  Code  Gb  platform.o [1]
DataToHexStringWithSpaces
                        0x000272e3    0x24  Code  Gb  StringUtils.o [1]
DmaAbort                0x00021213    0x1a  Code  Gb  platform.o [1]
ECS_CreateHTTPFailedMessage
                        0x00039025    0x98  Code  Gb  FogCloudUtils.o [4]
ECS_CreateHTTPMessageEx
                        0x00038e85    0x9c  Code  Gb  FogCloudUtils.o [4]
ECS_CreateHTTPMessageWithRange
                        0x00038f45    0xa2  Code  Gb  FogCloudUtils.o [4]
ECS_CreateSimpleHTTPMessage
                        0x0003a2b1    0x7e  Code  Gb  FogCloudUtils.o [4]
ECS_CreateSimpleHTTPOKMessage
                        0x0003a271    0x38  Code  Gb  FogCloudUtils.o [4]
ECS_DataToHexStringLowercase
                        0x00039745    0x42  Code  Gb  FogCloudUtils.o [4]
ECS_HTTPGetHeaderField  0x0003a03d   0x114  Code  Gb  FogCloudUtils.o [4]
ECS_HTTPHeaderClear     0x0003a1a3    0xce  Code  Gb  FogCloudUtils.o [4]
ECS_HTTPHeaderCreate    0x0003a199     0xa  Code  Gb  FogCloudUtils.o [4]
ECS_HTTPHeaderMatchURL  0x0003a17d    0x10  Code  Gb  FogCloudUtils.o [4]
ECS_HTTPHeaderParse     0x00039ddb   0x200  Code  Gb  FogCloudUtils.o [4]
ECS_HTTPScanFHeaderValue
                        0x0003a151    0x2c  Code  Gb  FogCloudUtils.o [4]
ECS_SocketReadHTTPBody  0x0003997d   0x444  Code  Gb  FogCloudUtils.o [4]
ECS_SocketReadHTTPBodyEx
                        0x00039299   0x490  Code  Gb  FogCloudUtils.o [4]
ECS_SocketReadHTTPHeader
                        0x00039791   0x1bc  Code  Gb  FogCloudUtils.o [4]
ECS_SocketReadHTTPHeaderEx
                        0x000390c1   0x1d8  Code  Gb  FogCloudUtils.o [4]
ECS_findChunkedDataLength
                        0x00039fe1    0x54  Code  Gb  FogCloudUtils.o [4]
ECS_getDownloadedFileSize
                        0x00038e7b     0xa  Code  Gb  FogCloudUtils.o [4]
ECS_getOTAPartionOffset
                        0x00038e6f     0xc  Code  Gb  FogCloudUtils.o [4]
ECS_initOTAFlashStorageParams
                        0x00038e59    0x16  Code  Gb  FogCloudUtils.o [4]
EasyLinkNotify_EasyLinkCompleteHandler
                        0x00033edf    0x70  Code  Lc  system_easylink.o [1]
EasyLinkNotify_EasyLinkGetExtraDataHandler
                        0x00033f4f    0xfa  Code  Lc  system_easylink.o [1]
EasyLinkNotify_WifiStatusHandler
                        0x00033ea5    0x3a  Code  Lc  system_easylink.o [1]
ExtClockIn              0x0004249c     0x4  Data  Gb  platform.o [1]
FOTA_WifiStatusHandler  0x0003ad5d    0x10  Code  Lc  tftp_ota.o [1]
FogCloudActivate        0x000374ed    0x66  Code  Gb  FogCloudService.o [4]
FogCloudAuthorize       0x00037569    0x66  Code  Gb  FogCloudService.o [4]
FogCloudDeviceReset     0x0003770f   0x1e0  Code  Gb  FogCloudService.o [4]
FogCloudGetLatestRomVersion
                        0x000375f1    0xd4  Code  Gb  FogCloudService.o [4]
FogCloudGetRomData      0x000376e9    0x26  Code  Gb  FogCloudService.o [4]
FogCloudMQTTClientInit  0x0003c90d    0x1e  Code  Gb  FogCloudMQTTClient.o [4]
FogCloudMQTTClientPublish
                        0x0003cf27    0x88  Code  Gb  FogCloudMQTTClient.o [4]
FogCloudMQTTClientPublishtoChannel
                        0x0003cfaf    0x6c  Code  Gb  FogCloudMQTTClient.o [4]
FogCloudMQTTClientStart
                        0x0003c92b    0x24  Code  Gb  FogCloudMQTTClient.o [4]
FogCloudMQTTClientState
                        0x0003d0ad     0x8  Code  Gb  FogCloudMQTTClient.o [4]
FogCloudMQTTClientStop  0x0003d07b    0x32  Code  Gb  FogCloudMQTTClient.o [4]
FogCloudPublishtoChannel
                        0x000374af    0x3e  Code  Gb  FogCloudService.o [4]
FogCloudServiceInit     0x000373f1    0x4a  Code  Gb  FogCloudService.o [4]
FogCloudServiceStart    0x0003744d    0x3a  Code  Gb  FogCloudService.o [4]
FogCloudServiceState    0x0003749d     0xc  Code  Gb  FogCloudService.o [4]
FogCloudServiceVersion  0x000373dd    0x14  Code  Gb  FogCloudServiceVersion.o [4]
HEAP$$Base              0x02000100           --   Gb  - Linker created -
HEAP$$Limit             0x02011100           --   Gb  - Linker created -
HTTPGetHeaderField      0x0003b7fd   0x116  Code  Gb  HTTPUtils.o [1]
HTTPHeaderClear         0x0003b97b    0xc2  Code  Gb  HTTPUtils.o [1]
HTTPHeaderCreateWithCallback
                        0x0003b957    0x24  Code  Gb  HTTPUtils.o [1]
HTTPHeaderMatchURL      0x0003b93f    0x10  Code  Gb  HTTPUtils.o [1]
HTTPHeaderParse         0x0003b5b1   0x1ee  Code  Gb  HTTPUtils.o [1]
HTTPScanFHeaderValue    0x0003b913    0x2c  Code  Gb  HTTPUtils.o [1]
I2C0_IRQHandler         0x000212f7     0x6  Code  Gb  platform.o [1]
I2C1_IRQHandler         0x000212fd     0x6  Code  Gb  platform.o [1]
I2C2_IRQHandler         0x00021303     0x6  Code  Gb  platform.o [1]
I2CMIrqHandler          0x0002af8b    0x2c  Code  Gb  platform_i2c.o [1]
InStream_Read           0x00042933    0x22  Code  Lc  packbits_init.o [8]
InitMd5                 0x000384c3    0x26  Code  Gb  md5.o [7]
InitTimer               0x0003d7c3     0x6  Code  Gb  MQTTMICO.o [4]
LoadInt                 0x0001b22d    0x6e  Code  Lc  xprintffull.o [5]
MICOReadConfiguration   0x00026f2d   0x266  Code  Gb  mico_system_para_storage.o [1]
MICOStartBonjourService
                        0x0002bd51   0x1f2  Code  Gb  MICOBonjour.o [1]
MICO_disconnect         0x0003d935     0x6  Code  Gb  MQTTMICO.o [4]
MICO_read               0x0003d7c9    0xbc  Code  Gb  MQTTMICO.o [4]
MICO_write              0x0003d88b    0xaa  Code  Gb  MQTTMICO.o [4]
MQTTClient              0x0003da33    0x30  Code  Gb  MQTTClient.o [4]
MQTTConnect             0x0003dd7d    0xa8  Code  Gb  MQTTClient.o [4]
MQTTDeserialize_ack     0x0003eda5    0x56  Code  Gb  MQTTDeserializePublish.o [4]
MQTTDeserialize_connack
                        0x0003ec09    0x6e  Code  Gb  MQTTConnectClient.o [4]
MQTTDeserialize_publish
                        0x0003ed0d    0x98  Code  Gb  MQTTDeserializePublish.o [4]
MQTTDeserialize_suback  0x0003efbf    0x82  Code  Gb  MQTTSubscribeClient.o [4]
MQTTDisconnect          0x0003dfff    0x3c  Code  Gb  MQTTClient.o [4]
MQTTPacket_decode       0x0003e857    0x3a  Code  Gb  MQTTPacket.o [4]
MQTTPacket_decodeBuf    0x0003e8d1     0x8  Code  Gb  MQTTPacket.o [4]
MQTTPacket_encode       0x0003e831    0x26  Code  Gb  MQTTPacket.o [4]
MQTTPacket_equals       0x0003e9ef    0x36  Code  Gb  MQTTPacket.o [4]
MQTTPacket_len          0x0003e891    0x22  Code  Gb  MQTTPacket.o [4]
MQTTPublish             0x0003df11    0xee  Code  Gb  MQTTClient.o [4]
MQTTSerialize_ack       0x0003eead    0x4a  Code  Gb  MQTTSerializePublish.o [4]
MQTTSerialize_connect   0x0003eaa1   0x168  Code  Gb  MQTTConnectClient.o [4]
MQTTSerialize_connectLength
                        0x0003ea25    0x7c  Code  Gb  MQTTConnectClient.o [4]
MQTTSerialize_disconnect
                        0x0003ec77    0x2a  Code  Gb  MQTTConnectClient.o [4]
MQTTSerialize_pingreq   0x0003ecbb    0x2a  Code  Gb  MQTTConnectClient.o [4]
MQTTSerialize_publish   0x0003ee05    0xa8  Code  Gb  MQTTSerializePublish.o [4]
MQTTSerialize_subscribe
                        0x0003ef2f    0x90  Code  Gb  MQTTSubscribeClient.o [4]
MQTTSerialize_subscribeLength
                        0x0003ef11    0x1e  Code  Gb  MQTTSubscribeClient.o [4]
MQTTSubscribe           0x0003de25    0xec  Code  Gb  MQTTClient.o [4]
MQTTYield               0x0003dd4d    0x30  Code  Gb  MQTTClient.o [4]
MQTTstrlen              0x0003e9e1     0xe  Code  Gb  MQTTPacket.o [4]
MakeByte                0x00016e0f    0x2c  Code  Lc  arc4.o [7]
Md5Final                0x00038db5    0xa2  Code  Gb  md5.o [7]
Md5Update               0x00038d57    0x5e  Code  Gb  md5.o [7]
MiCOFogCloudActivate    0x0002b9b9    0x1e  Code  Gb  MicoFogCloud.o [1]
MiCOFogCloudAuthorize   0x0002b9d7    0x26  Code  Gb  MicoFogCloud.o [1]
MiCOFogCloudFirmwareUpdate
                        0x0002ba05    0x1e  Code  Gb  MicoFogCloud.o [1]
MiCOFogCloudGetState    0x0002ba41    0x66  Code  Gb  MicoFogCloud.o [1]
MiCOFogCloudMsgRecv     0x0002bb91    0x5c  Code  Gb  MicoFogCloud.o [1]
MiCOFogCloudMsgSend     0x0002baa7     0xa  Code  Gb  MicoFogCloud.o [1]
MiCOFogCloudResetCloudDevInfo
                        0x0002ba23    0x1e  Code  Gb  MicoFogCloud.o [1]
MiCOFogCloudRestoreDefault
                        0x0002b91b    0x5a  Code  Gb  MicoFogCloud.o [1]
MiCOStartFogCloudConfigServer
                        0x000322a1    0x20  Code  Gb  MicoFogCloudConfigServer.o [1]
MiCOStartFogCloudService
                        0x0002b975    0x44  Code  Gb  MicoFogCloud.o [1]
MicoFlashErase          0x000224dd    0x8a  Code  Gb  mico_platform_common.o [1]
MicoFlashGetInfo        0x0002245f    0x16  Code  Gb  mico_platform_common.o [1]
MicoFlashInitialize     0x00022475    0x68  Code  Gb  mico_platform_common.o [1]
MicoFlashRead           0x00022613    0xaa  Code  Gb  mico_platform_common.o [1]
MicoFlashWrite          0x00022567    0xac  Code  Gb  mico_platform_common.o [1]
MicoFogCloudCloudMsgProcess
                        0x0002bab1    0xda  Code  Gb  MicoFogCloud.o [1]
MicoGpioEnableIRQ       0x00022295    0x20  Code  Gb  mico_platform_common.o [1]
MicoGpioInitialize      0x00022239    0x12  Code  Gb  mico_platform_common.o [1]
MicoGpioOutputHigh      0x0002224b    0x12  Code  Gb  mico_platform_common.o [1]
MicoGpioOutputLow       0x0002225d    0x12  Code  Gb  mico_platform_common.o [1]
MicoGpioOutputTrigger   0x0002226f    0x12  Code  Gb  mico_platform_common.o [1]
MicoMcuPowerSaveConfig  0x000222b5     0xc  Code  Gb  mico_platform_common.o [1]
MicoRfLed               0x000214b1    0x10  Code  Gb  platform.o [1]
MicoShouldEnterMFGMode  0x000214c1    0x1a  Code  Gb  platform.o [1]
MicoSpiInitialize       0x000222c5    0x78  Code  Gb  mico_platform_common.o [1]
MicoSpiTransfer         0x0002233d    0x8c  Code  Gb  mico_platform_common.o [1]
MicoSysLed              0x000214a1    0x10  Code  Gb  platform.o [1]
MicoSystemReboot        0x0002245b     0x4  Code  Gb  mico_platform_common.o [1]
MicoSystemStandBy       0x000222c1     0x4  Code  Gb  mico_platform_common.o [1]
MicoUartGetLengthInBuffer
                        0x00022445    0x16  Code  Gb  mico_platform_common.o [1]
MicoUartInitialize      0x000223c9    0x3c  Code  Gb  mico_platform_common.o [1]
MicoUartRecv            0x00022425    0x20  Code  Gb  mico_platform_common.o [1]
MicoUartSend            0x00022405    0x20  Code  Gb  mico_platform_common.o [1]
NVIC_SetPriority        0x000211f9    0x1a  Code  Lc  platform.o [1]
NetCallback             0x0000f293    0x1a  Code  Gb  mico_system_notification.o [1]
NewNetwork              0x0003d93b    0x12  Code  Gb  MQTTMICO.o [4]
Notify_list             0x034010dc    0x50  Data  Gb  mico_system_notification.o [1]
OTAFailed               0x00032b5d     0x4  Code  Gb  MICOConfigDelegate.o [1]
OTASuccess              0x00032b61     0x2  Code  Gb  MICOConfigDelegate.o [1]
OTAWillStart            0x00032b4d    0x10  Code  Gb  MICOConfigDelegate.o [1]
OnSPIDmaXferDone        0x0002acdb    0x3a  Code  Gb  platform_spi.o [1]
OnUartIRQ               0x0002a665    0xea  Code  Gb  platform_uart.o [1]
OpenEasylink            0x0000ece3    0x22  Code  Gb  mxchipWNET.o [7]
PIN_INT0_IRQHandler     0x0002a4d1     0x4  Code  Gb  platform_gpio.o [1]
PIN_INT1_IRQHandler     0x0002a4d5     0x4  Code  Gb  platform_gpio.o [1]
PIN_INT2_IRQHandler     0x0002a4d9     0x4  Code  Gb  platform_gpio.o [1]
PIN_INT3_IRQHandler     0x0002a4dd     0x4  Code  Gb  platform_gpio.o [1]
PIN_INT4_IRQHandler     0x0002a4e1     0x4  Code  Gb  platform_gpio.o [1]
PIN_INT5_IRQHandler     0x0002a4e5     0x4  Code  Gb  platform_gpio.o [1]
PIN_INT6_IRQHandler     0x0002a4e9     0x4  Code  Gb  platform_gpio.o [1]
PIN_INT7_IRQHandler     0x0002a4ed    0x18  Code  Gb  platform_gpio.o [1]
PlatformEasyLinkButtonClickedCallback
                        0x0002afb9    0x4a  Code  Gb  mico_system_power_daemon.o [1]
PlatformEasyLinkButtonLongPressedCallback
                        0x0002b003    0x24  Code  Gb  mico_system_power_daemon.o [1]
PlatformStandbyButtonClickedCallback
                        0x0002b027    0x20  Code  Gb  mico_system_power_daemon.o [1]
PwrCtlStateReset        0x0002a183    0x10  Code  Gb  power_control.o [1]
RX_PIN_WAKEUP_handler   0x0002ab99    0x14  Code  Lc  platform_uart.o [1]
Region$$Table$$Base     0x00043550           --   Gb  - Linker created -
Region$$Table$$Limit    0x0004358c           --   Gb  - Linker created -
RptConfigmodeRslt       0x0000f2ad    0x1a  Code  Gb  mico_system_notification.o [1]
SetTimer                0x00011e19    0x5a  Code  Gb  wifimgr.o [7]
SetTimer_uniq           0x00011e73    0x32  Code  Gb  wifimgr.o [7]
SocketClose             0x0003a4d9    0x14  Code  Gb  SocketUtils.o [1]
SocketReadHTTPBody      0x0003b1e5   0x3cc  Code  Gb  HTTPUtils.o [1]
SocketReadHTTPHeader    0x0003b093   0x152  Code  Gb  HTTPUtils.o [1]
SocketSend              0x0003a445    0x86  Code  Gb  SocketUtils.o [1]
StartAdvNetwork         0x0001101d   0x1b6  Code  Gb  wifimgr.o [7]
StartNetwork            0x000111d3   0x14c  Code  Gb  wifimgr.o [7]
SystemCoreClock         0x034014fc     0x4  Data  Gb  chip_5410x.o [1]
Td                      0x00040768  0x1400  Data  Lc  aes.o [7]
Te                      0x0003f368  0x1400  Data  Lc  aes.o [7]
Transform               0x000384e9   0x744  Code  Lc  md5.o [7]
UART0_IRQHandler        0x000212df     0x6  Code  Gb  platform.o [1]
UART1_IRQHandler        0x000212e5     0x6  Code  Gb  platform.o [1]
UART2_IRQHandler        0x000212eb     0x6  Code  Gb  platform.o [1]
UART3_IRQHandler        0x000212f1     0x6  Code  Gb  platform.o [1]
URLParseComponents      0x0003d135   0x16c  Code  Gb  URLUtils.o [1]
UpdateCRC16             0x0002ddfd    0x20  Code  Gb  CheckSumUtils.o [1]
VSNScanF                0x0002739b   0x5cc  Code  Gb  StringUtils.o [1]
WifiStatusHandler       0x0000f255    0x1a  Code  Gb  mico_system_notification.o [1]
XorWords                0x000279f9    0x1e  Code  Lc  aes.o [7]
ZCB_HandleAttributeReport
                        0x0002ef05   0x1c8  Code  Gb  ZigBeeControlBridge.o [1]
ZCB_HandleDeviceAnnounce
                        0x0002ec49   0x142  Code  Gb  ZigBeeControlBridge.o [1]
ZCB_HandleDeviceLeave   0x0002ed91    0xfa  Code  Gb  ZigBeeControlBridge.o [1]
ZCB_HandleIASZoneStatusChangeNotify
                        0x0002f0cd   0x170  Code  Gb  ZigBeeControlBridge.o [1]
ZCB_HandleMatchDescriptorResponse
                        0x0002ee91    0x74  Code  Gb  ZigBeeControlBridge.o [1]
ZCB_HandleNetworkJoined
                        0x0002e9f3   0x256  Code  Gb  ZigBeeControlBridge.o [1]
ZCB_HandleNodeClusterAttributeList
                        0x0002e935    0x5a  Code  Gb  ZigBeeControlBridge.o [1]
ZCB_HandleNodeClusterList
                        0x0002e8d9    0x5c  Code  Gb  ZigBeeControlBridge.o [1]
ZCB_HandleNodeCommandIDList
                        0x0002e99b    0x54  Code  Gb  ZigBeeControlBridge.o [1]
ZCB_HandleRestartFactoryNew
                        0x0002e9f1     0x2  Code  Gb  ZigBeeControlBridge.o [1]
ZCB_HandleRestartProvisioned
                        0x0002e9ef     0x2  Code  Gb  ZigBeeControlBridge.o [1]
ZCB_MessageHandle_thread
                        0x0002f829   0x20e  Code  Gb  user_uart.o [1]
_Close_all              0x0003e099    0x58  Code  Gb  xcloseall.o [5]
_EncodingSb_Mbtowc      0x0002dc7f    0x30  Code  Gb  xencoding_sb.o [5]
_EncodingSb_Wctomb      0x0002dc65    0x1a  Code  Gb  xencoding_sb.o [5]
_Files                  0x0340030c    0x20  Data  Gb  xfiles.o [5]
_Fofree                 0x0003f12d    0x78  Code  Gb  xfofind.o [5]
_Fspos                  0x00042805    0xd6  Code  Gb  xfspos.o [5]
_Fwprep                 0x00042a03    0xb6  Code  Gb  xfwprep.o [5]
_GenldFull              0x0001bab7   0x24e  Code  Lc  xprintffull.o [5]
_GetN                   0x0003bc3d    0x22  Code  Lc  xscanffull.o [5]
_GetSector              0x0002c459    0xd4  Code  Lc  platform_flash.o [1]
_GetfldFull             0x0003be61   0x102  Code  Lc  xscanffull.o [5]
_GetfloatFull           0x0003c40b   0x4da  Code  Lc  xscanffull.o [5]
_GetintFull             0x0003c219   0x1ec  Code  Lc  xscanffull.o [5]
_GetstrFull             0x0003bf65   0x2ae  Code  Lc  xscanffull.o [5]
_IsdstStr               0x03400118     0x4  Data  Gb  setlocale.o [5]
_LdtobFull              0x0001b6b5   0x3fc  Code  Lc  xprintffull.o [5]
_Led_EL_timer           0x03401430     0xc  Data  Lc  MICOConfigDelegate.o [1]
_LitobFull              0x0001b5ad   0x106  Code  Lc  xprintffull.o [5]
_LocalConfigRespondInComingMessage
                        0x00034cd9   0x61c  Code  Lc  config_server.o [1]
_LocalConfigRespondInComingMessage
                        0x00032465   0x520  Code  Lc  MicoFogCloudConfigServer.o [1]
_LocaleC_isalpha        0x000368a5    0x16  Code  Gb  xlocale_c.o [5]
_LocaleC_ispunct        0x000368bb    0x24  Code  Gb  xlocale_c.o [5]
_LocaleC_isspace        0x000368df    0x14  Code  Gb  xlocale_c.o [5]
_LocaleC_tolower        0x0002dfb1     0xc  Code  Gb  xlocale_c.o [5]
_LocaleEncoding         0x0002dc53     0xe  Code  Gb  setlocale.o [5]
_LocaleForCat           0x0002dc41    0x12  Code  Gb  setlocale.o [5]
_LocaleReturnString     0x03400138    0x50  Data  Lc  setlocale.o [5]
_Locale_Profile         0x0340011c    0x1c  Data  Gb  setlocale.o [5]
_Locale_aeabi_lconv     0x034000dc    0x38  Data  Gb  localeconv.o [5]
_Locale_lconv           0x0340008c    0x50  Data  Gb  localeconv.o [5]
_Mbtowc                 0x000259f9    0x20  Code  Gb  xmbtowc.o [5]
_Nnl                    0x000428db     0xc  Code  Gb  xfgpos.o [5]
_PrintfFull             0x0001abf9   0x61e  Code  Gb  xprintffull.o [5]
_Prout                  0x00043c2d    0x16  Code  Gb  xprout.o [5]
_PutcharsFull           0x0001bd05    0x2e  Code  Lc  xprintffull.o [5]
_PutstrFull             0x0001b29b   0x30c  Code  Lc  xprintffull.o [5]
_Rand_idx               0x03400008     0x4  Data  Lc  rand.o [5]
_Rand_rv                0x0340000c    0x80  Data  Lc  rand.o [5]
_Randinit               0x03400000     0x1  Data  Gb  rand.o [5]
_Randseed               0x03400004     0x4  Data  Gb  rand.o [5]
_SNProut                0x0000e9d3    0x1a  Code  Gb  xsnprout.o [5]
_SProut                 0x0000f217     0xa  Code  Gb  xsprout.o [5]
_SScin                  0x0000e953    0x1e  Code  Gb  xsscin.o [5]
_ScanfFull              0x0003bc79   0x1e2  Code  Gb  xscanffull.o [5]
_Stoflt                 0x0003e215   0x1b8  Code  Gb  xstoflt.o [5]
_Stopfx                 0x0003e0f1   0x124  Code  Gb  xstopfx.o [5]
_Stoxflt                0x0003e619   0x1e2  Code  Gb  xstoxflt.o [5]
_TzoneStr               0x03400114     0x4  Data  Gb  setlocale.o [5]
_UngetN                 0x0003bc5f    0x1a  Code  Lc  xscanffull.o [5]
_Wctomb                 0x00025a93    0x1a  Code  Gb  xwctomb.o [5]
__Vectors               0x0000c000           --   Gb  startup_lpc54100_EWARM.o [1]
__Vectors_End           0x0000c0f4          Data  Gb  startup_lpc54100_EWARM.o [1]
__Vectors_Size {Abs}    0x000000f4           --   Gb  startup_lpc54100_EWARM.o [1]
__aeabi_cdcmpeq         0x00037119          Code  Gb  DblCmpEq.o [6]
__aeabi_cdcmple         0x00025bdd          Code  Gb  DblCmpLe.o [6]
__aeabi_cdrcmple        0x00025c0d          Code  Gb  DblCmpGe.o [6]
__aeabi_d2f             0x0003d6b1          Code  Gb  DblToFlt.o [6]
__aeabi_d2iz            0x00025d55          Code  Gb  DblToI32.o [6]
__aeabi_d2lz            0x0003721d          Code  Gb  DblToI64.o [6]
__aeabi_d2uiz           0x00025d81          Code  Gb  DblToI32.o [6]
__aeabi_dadd            0x0002dcc9          Code  Gb  DblAdd.o [6]
__aeabi_ddiv            0x00026101          Code  Gb  DblDiv.o [6]
__aeabi_dmul            0x00025f5d          Code  Gb  DblMul.o [6]
__aeabi_dsub            0x00025ddd          Code  Gb  DblSub.o [6]
__aeabi_errno_addr      0x0002dfbd     0x6  Code  Gb  errno.o [5]
__aeabi_i2d             0x00025dad          Code  Gb  I32ToDbl.o [6]
__aeabi_ldiv0           0x0002dcc5          Code  Gb  I64DivZer.o [8]
__aeabi_llsl            0x00036c39          Code  Gb  I64Shl.o [8]
__aeabi_llsr            0x00036c5d          Code  Gb  U64Shr.o [8]
__aeabi_memclr          0x0003303d          Code  Gb  ABImemclr.o [8]
__aeabi_memclr4         0x00022771          Code  Gb  ABImemclr4.o [8]
__aeabi_memset          0x0000e8ed          Code  Gb  ABImemset.o [8]
__aeabi_memset4         0x0002c541          Code  Gb  ABImemset48.o [8]
__aeabi_memset8         0x0002c541          Code  Gb  ABImemset48.o [8]
__aeabi_ui2d            0x00025dc1          Code  Gb  I32ToDbl.o [6]
__aeabi_uldivmod        0x00025aad          Code  Gb  I64DivMod.o [8]
__cexit_clearlocks      0x0003d2a7          Code  Gb  cexit.o [8]
__cexit_closeall        0x0003d2a3          Code  Gb  cexit.o [8]
__close                 0x0003f259    0x1a  Code  Gb  close.o [9]
__cmain                 0x00043971          Code  Gb  cmain.o [8]
__cstart_clearlocks     0x00044704          Data  Gb  cstart_clearlocks.o [8]
__cstart_closeall       0x00044704          Data  Gb  cstart_closeall.o [8]
__data_GetMemChunk      0x00022799    0x2c  Code  Gb  xgetmemchunk.o [5]
__exit                  0x0002c52d    0x14  Code  Gb  exit.o [9]
__iar_Dnorm             0x00025b9b    0x42  Code  Gb  xdnorm.o [6]
__iar_Dscale            0x00025c3d   0x118  Code  Gb  xdscale.o [6]
__iar_Dtentox           0x0003e475   0x13e  Code  Gb  xdtento.o [6]
__iar_Dunscale          0x0003f0d7    0x56  Code  Gb  xdunscal.o [6]
__iar_Errno             0x03400418     0x4  Data  Gb  errno.o [5]
__iar_ForwardingLockFunctions {Abs}
                        0x00000000           --   Gb  xsyslock.o [5]
__iar_Locale_lconv_init
                        0x00026359    0x3a  Code  Gb  localeconv.o [5]
__iar_Lockfilelock_mtx  0x0002c65f    0x28  Code  Gb  xsyslock_mtx.o [5]
__iar_Locksyslock_Malloc
                        0x00022777     0x4  Code  Gb  xsyslock.o [5]
__iar_Locksyslock_Stream
                        0x00022781     0x6  Code  Gb  xsyslock.o [5]
__iar_Locksyslock_mtx   0x0002c69d    0x26  Code  Gb  xsyslock_mtx.o [5]
__iar_Mbcurmax          0x00025a89     0xa  Code  Gb  xmbcurmax.o [5]
__iar_Memchr            0x00025a31          Code  Gb  memchr.o [8]
__iar_Memset            0x0000e8ed          Code  Gb  ABImemset.o [8]
__iar_Memset4_word      0x0002c549          Code  Gb  ABImemset48.o [8]
__iar_Memset8_word      0x0002c549          Code  Gb  ABImemset48.o [8]
__iar_Memset_word       0x0000e8f5          Code  Gb  ABImemset.o [8]
__iar_Stderr            0x034002ac    0x40  Data  Gb  xfiles.o [5]
__iar_Stdin             0x0340022c    0x40  Data  Gb  xfiles.o [5]
__iar_Stdout            0x0340026c    0x40  Data  Gb  xfiles.o [5]
__iar_Stold             0x0003d6ad     0x4  Code  Gb  xstold.o [6]
__iar_Stoldx            0x0003d549   0x14e  Code  Gb  xstold.o [6]
__iar_Stoll             0x0003d395     0x4  Code  Gb  xstoll.o [5]
__iar_Stollx            0x0003d2f5    0xa0  Code  Gb  xstoll.o [5]
__iar_Stoul             0x0002a0c5     0x4  Code  Gb  xstoul.o [5]
__iar_Stoull            0x0003d4f5     0x4  Code  Gb  xstoull.o [5]
__iar_Stoullx           0x0003d399   0x156  Code  Gb  xstoull.o [5]
__iar_Stoulx            0x00029f81   0x13e  Code  Gb  xstoul.o [5]
__iar_Strchr            0x00025a19          Code  Gb  strchr.o [8]
__iar_Unlockfilelock_mtx
                        0x0002c687    0x16  Code  Gb  xsyslock_mtx.o [5]
__iar_Unlocksyslock_Malloc
                        0x00022787     0x4  Code  Gb  xsyslock.o [5]
__iar_Unlocksyslock_Stream
                        0x00022791     0x6  Code  Gb  xsyslock.o [5]
__iar_Unlocksyslock_mtx
                        0x0002c6c3    0x12  Code  Gb  xsyslock_mtx.o [5]
__iar_Wctob             0x0003d2b5    0x36  Code  Gb  xwctob.o [5]
__iar_clearlocks        0x0002c57d    0x74  Code  Gb  xsyslock_mtx.o [5]
__iar_d2uiz             0x00025d8d          Code  Gb  DblToI32.o [6]
__iar_dadd              0x0002dcdd          Code  Gb  DblAdd.o [6]
__iar_data_init3        0x00043379    0x28  Code  Gb  data_init.o [8]
__iar_dlcalloc          0x0001692d    0x48  Code  Gb  dlmalloc.o [7]
__iar_dlfree            0x000162b3   0x676  Code  Gb  dlmalloc.o [7]
__iar_dlib_perthread_access
                        0x00023299     0x2  Code  Gb  xtls.o [5]
__iar_dlmallinfo        0x00016db1     0xa  Code  Gb  dlmalloc.o [7]
__iar_dlmalloc          0x00015f53   0x360  Code  Gb  dlmalloc.o [7]
__iar_dlrealloc         0x00016d1d    0x94  Code  Gb  dlmalloc.o [7]
__iar_dsub              0x00025df1          Code  Gb  DblSub.o [6]
__iar_dsubStart         0x00025e03          Code  Gb  DblSub.o [6]
__iar_file_Mtxdst       0x00036655     0x2  Code  Gb  iar_mutex.o [7]
__iar_file_Mtxinit      0x00036653     0x2  Code  Gb  iar_mutex.o [7]
__iar_file_Mtxlock      0x00036657     0x2  Code  Gb  iar_mutex.o [7]
__iar_file_Mtxunlock    0x00036659     0x2  Code  Gb  iar_mutex.o [7]
__iar_init_vfp          0x0004352d          Code  Gb  fpinit_M.o [6]
__iar_packbits_init3    0x00042955    0xae  Code  Gb  packbits_init.o [8]
__iar_program_start     0x000444cd          Code  Gb  cstartup_M.o [8]
__iar_sh_Discard        0x0003f289    0x44  Code  Gb  XShHandles.o [5]
__iar_sh_Move           0x0003f2d3    0x4c  Code  Gb  XShHandles.o [5]
__iar_sh_Pos            0x0003f31f    0x44  Code  Gb  XShHandles.o [5]
__iar_strcmp            0x0001a92d          Code  Gb  strcmp_unaligned.o [8]
__iar_system_Mtxdst     0x00036641     0x2  Code  Gb  iar_mutex.o [7]
__iar_system_Mtxinit    0x0003663f     0x2  Code  Gb  iar_mutex.o [7]
__iar_system_Mtxlock    0x00036643     0x8  Code  Gb  iar_mutex.o [7]
__iar_system_Mtxunlock  0x0003664b     0x8  Code  Gb  iar_mutex.o [7]
__iar_ui2d              0x00025dc5          Code  Gb  I32ToDbl.o [6]
__iar_unaligned___aeabi_memcpy
                        0x0000f43d          Code  Gb  ABImemcpy_unaligned.o [8]
__iar_unaligned___aeabi_memcpy4
                        0x0000f45d          Code  Gb  ABImemcpy_unaligned.o [8]
__iar_unaligned___aeabi_memcpy8
                        0x0000f45d          Code  Gb  ABImemcpy_unaligned.o [8]
__iar_unaligned___aeabi_memmove
                        0x00026575          Code  Gb  ABImemmove_unaligned.o [8]
__iar_unaligned___aeabi_memmove4
                        0x00026575          Code  Gb  ABImemmove_unaligned.o [8]
__iar_unaligned___aeabi_memmove8
                        0x00026575          Code  Gb  ABImemmove_unaligned.o [8]
__iar_unaligned_memcmp  0x0000e971          Code  Gb  memcmp_unaligned.o [8]
__iar_unaligned_strcmp  0x0001a92d          Code  Gb  strcmp_unaligned.o [8]
__iar_unaligned_strcpy  0x0001a971          Code  Gb  strcpy_unaligned.o [8]
__iar_unaligned_strncpy
                        0x00012fd5          Code  Gb  strncpy_unaligned.o [8]
__iar_zero_init3        0x00042e75    0x40  Code  Gb  zero_init3.o [8]
__low_level_init        0x00043955    0x1c  Code  Gb  crt0_EWARM.o [1]
__lseek                 0x000428e7    0x4c  Code  Gb  lseek.o [9]
__strdup                0x0002726d    0x2e  Code  Gb  StringUtils.o [1]
__strdup_trans_dot      0x0002729b    0x48  Code  Gb  StringUtils.o [1]
__vector_table          0x0000c000          Data  Gb  startup_lpc54100_EWARM.o [1]
__vector_table_0x1c     0x0000c01c          Data  Gb  startup_lpc54100_EWARM.o [1]
__write                 0x0003f0c3    0x14  Code  Gb  Retarget.o [1]
_bonjour_announce_handler
                        0x03400300     0x4  Data  Lc  mico_mdns.o [1]
_bonjour_send_anounce_thread
                        0x00035ac5    0x66  Code  Gb  mico_mdns.o [1]
_bonjour_thread         0x00036075   0x182  Code  Lc  mico_mdns.o [1]
_button_EL_Timeout_handler
                        0x000213f1     0xe  Code  Lc  platform.o [1]
_button_EL_irq_handler  0x000213af    0x42  Code  Lc  platform.o [1]
_button_EL_timer        0x02017e68     0xc  Data  Lc  platform.o [1]
_call_main              0x0004397d          Code  Gb  cmain.o [8]
_clean_record_resource  0x00035b2b    0x36  Code  Lc  mico_mdns.o [1]
_configIncommingJsonMessage
                        0x0003813f    0x90  Code  Lc  FogCloudService.o [4]
_configRomVersionIncommingJsonMessage
                        0x000381d9   0x108  Code  Lc  FogCloudService.o [4]
_default_start_time     0x02017e64     0x4  Data  Lc  platform.o [1]
_exit                   0x0003d2a1          Code  Gb  cexit.o [8]
_gm_                    0x02017404   0x1d8  Data  Lc  dlmalloc.o [7]
_led_EL_Timeout_handler
                        0x00032b8d     0x6  Code  Lc  MICOConfigDelegate.o [1]
_main                   0x00043987          Code  Gb  cmain.o [8]
_prvDbDescCfgNext       0x00024d0f    0x8e  Code  Gb  wlan_bus_spi.o [1]
_prvFifoRecfg           0x0002a591    0x60  Code  Gb  platform_uart.o [1]
_prvI2CMXferFSM         0x0002ae91    0xfa  Code  Gb  platform_i2c.o [1]
_prvInitDataStructure   0x0002a52d    0x64  Code  Gb  platform_uart.o [1]
_prvInitUartHw          0x0002a74f   0x14e  Code  Gb  platform_uart.o [1]
_prvPinIntHandler       0x0002a4af    0x22  Code  Gb  platform_gpio.o [1]
_prvReadFifo            0x0002a5f1    0x44  Code  Gb  platform_uart.o [1]
_prvReadFifoWithEnoughBuf
                        0x0002a635    0x30  Code  Gb  platform_uart.o [1]
_prvRingBufReadAndConsume
                        0x0002aa15    0x42  Code  Gb  platform_uart.o [1]
_prvWlanSPIXfer         0x00024ec1   0x186  Code  Gb  wlan_bus_spi.o [1]
_sys_state_thread       0x0002b053    0x7a  Code  Lc  mico_system_power_daemon.o [1]
_uap_up                 0x00010d9f    0x58  Code  Lc  wifimgr.o [7]
a1_pattern              0x00044394     0xc  Data  Lc  smart_config.o [7]
a1_settings             0x000443c4     0xc  Data  Lc  smart_config.o [7]
a3_pattern              0x000443a0     0xc  Data  Lc  smart_config.o [7]
a3_settings             0x000443d0     0xc  Data  Lc  smart_config.o [7]
a_record_template       0x00044478     0xc  Data  Lc  dns_redirect.o [7]
abort                   0x00022769     0x6  Code  Gb  abort.o [5]
accept                  0x0000ee9b    0x44  Code  Gb  mxchipWNET.o [7]
accept_function         0x0002ca3f    0x7a  Code  Lc  api_msg.o [7]
ackno                   0x03401680     0x4  Data  Lc  tcp_in.o [7]
active_scan_ssid        0x02017c58    0x24  Data  Lc  wifimgr.o [7]
add_client_to_cache     0x0002998f    0xa2  Code  Lc  dhcp_server.o [7]
add_segment             0x00014e6f   0x23e  Code  Lc  dlmalloc.o [7]
aes_encrypt_mx          0x0001dad9    0x2a  Code  Gb  aes_wrap.o [7]
airkiss_broadcast_thread
                        0x000341b1    0x4c  Code  Lc  system_easylink.o [1]
airkiss_parse           0x0000e0f9   0x236  Code  Lc  smart_config.o [7]
airkiss_random          0x03401482     0x1  Data  Lc  system_easylink.o [1]
alink_get_tpsk          0x0000f1db     0x6  Code  Wk  mxchipWNET.o [7]
alink_success           0x0000c45b    0x9e  Code  Lc  smart_config.o [7]
alloc_socket            0x00018fbd    0xb8  Code  Lc  sockets.o [7]
allrouters              0x03401694     0x4  Data  Lc  igmp.o [7]
allsystems              0x03401690     0x4  Data  Lc  igmp.o [7]
ap_mode                 0x03400410     0x4  Data  Lc  wwd_ap.o [7]
ap_num                  0x03401768     0x1  Data  Lc  smart_config.o [7]
ap_tbl                  0x0201627c   0x500  Data  Lc  smart_config.o [7]
appNotify_ConnectFailedHandler
                        0x000214dd    0x12  Code  Lc  MICOAppEntrance.o [1]
appRestoreDefault_callback
                        0x00021509    0x10  Code  Gb  MICOAppEntrance.o [1]
app_context_global      0x03401508     0x4  Data  Gb  MICOAppEntrance.o [1]
app_stack_size          0x034003a4     0x4  Data  Gb  mico_config.o [1]
app_thread_handle       0x03401548     0x4  Data  Lc  wiced_rtos.o [7]
append_ap_adv_list      0x0001141b    0xaa  Code  Lc  wifimgr.o [7]
append_ap_list          0x000113a1    0x7a  Code  Lc  wifimgr.o [7]
application_start       0x00021519    0xc8  Code  Gb  MICOAppEntrance.o [1]
application_thread_main
                        0x000130e1    0x1e  Code  Lc  wiced_rtos.o [7]
apssid                  0x034015f4     0x4  Data  Lc  smart_config.o [7]
apsta_events            0x0004449c     0xc  Data  Lc  wwd_ap.o [7]
arc4_decrypt            0x00016e7f    0x22  Code  Gb  arc4.o [7]
arp_Command             0x000129e9    0x9c  Code  Gb  wifimgr.o [7]
arp_clean               0x0001f335     0xe  Code  Gb  etharp.o [7]
arp_display             0x0001f253    0xda  Code  Gb  etharp.o [7]
arp_remove_all          0x0001f32d     0x8  Code  Lc  etharp.o [7]
arp_table               0x03400c38    0xa0  Data  Lc  etharp.o [7]
arp_timer               0x00023fb7    0x14  Code  Lc  lwiptimers.o [7]
array_list_add          0x00037361     0x6  Code  Gb  arraylist.o [1]
array_list_free         0x000372c9    0x2a  Code  Gb  arraylist.o [1]
array_list_get_idx      0x000372f3    0x12  Code  Gb  arraylist.o [1]
array_list_length       0x00037367     0x4  Code  Gb  arraylist.o [1]
array_list_new          0x00037297    0x32  Code  Gb  arraylist.o [1]
array_list_put_idx      0x00037305    0x5c  Code  Gb  arraylist.o [1]
autoconfig_start        0x0000d00f    0x5a  Code  Gb  smart_config.o [7]
available_services      0x03400dec    0x80  Data  Lc  mico_mdns.o [1]
bDMASPIRXDoneFlag       0x02017b61     0x1  Data  Gb  wlan_bus_spi.o [1]
bDMASPITXDoneFlag       0x02017b60     0x1  Data  Gb  wlan_bus_spi.o [1]
bStopbyUser             0x034014c4     0x1  Data  Gb  FogCloudService.o [4]
bZCB_EnableAPSAck       0x03400390     0x4  Data  Gb  ZigBeeControlBridge.o [1]
beacon_a1_pattern       0x000443ac     0xc  Data  Lc  smart_config.o [7]
beacon_a1_settings      0x000443dc     0xc  Data  Lc  smart_config.o [7]
beacon_a3_pattern       0x000443b8     0xc  Data  Lc  smart_config.o [7]
beacon_a3_settings      0x000443e8     0xc  Data  Lc  smart_config.o [7]
beacon_filter           0x00044370     0xc  Data  Lc  smart_config.o [7]
beacon_match            0x00013077     0x1  Data  Lc  smart_config.o [7]
beacon_pattern          0x00044334     0xc  Data  Lc  smart_config.o [7]
bind                    0x0000ee0f    0x34  Code  Gb  mxchipWNET.o [7]
bonjour_instance        0x034002ec     0x1  Data  Lc  mico_mdns.o [1]
bonjour_mutex           0x034002f4     0x4  Data  Lc  mico_mdns.o [1]
bonjour_send_record     0x00035dff   0x16e  Code  Gb  mico_mdns.o [1]
buf                     0x03400304     0x4  Data  Gb  mico_mdns.o [1]
bufchar                 0x0003e8b3    0x1e  Code  Gb  MQTTPacket.o [4]
bufptr                  0x03401744     0x4  Data  Lc  MQTTPacket.o [4]
built_ins               0x00033d90   0x114  Data  Lc  mico_cli.o [1]
c                       0x03401024    0x60  Data  Lc  FogCloudMQTTClient.o [4]
cached_ip_addresses     0x02016bdc    0x64  Data  Lc  dhcp_server.o [7]
cached_mac_addresses    0x02017cfc    0x20  Data  Lc  dhcp_server.o [7]
calculate_device_token  0x0003830d    0xcc  Code  Lc  FogCloudService.o [4]
channel_tbl             0x03401460    0x10  Data  Lc  smart_config.o [7]
check_sum_validate      0x0000d0d9   0x174  Code  Lc  smart_config.o [7]
chip_ram_size           0x03400404     0x4  Data  Lc  wwd_firmware.o [7]
cli_exit_handler        0x0003381b     0x2  Code  Lc  mico_cli.o [1]
cli_init                0x00033875    0x9a  Code  Gb  mico_cli.o [1]
cli_main                0x00033371    0xb0  Code  Lc  mico_cli.o [1]
cli_printf              0x00033929    0x44  Code  Gb  mico_cli.o [1]
cli_register_command    0x0003381d    0x50  Code  Gb  mico_cli.o [1]
cli_rx_buffer           0x034010cc    0x10  Data  Lc  mico_cli.o [1]
cli_rx_data             0x03401088     0x4  Data  Lc  mico_cli.o [1]
cli_uart_config         0x00033d84     0xc  Data  Lc  mico_cli.o [1]
close                   0x0000efdb     0x8  Code  Gb  mxchipWNET.o [7]
close_client_sem        0x02017c80    0x14  Data  Lc  config_server.o [1]
close_listener_sem      0x02017c98     0x4  Data  Lc  config_server.o [1]
cloudMsgArrivedHandler  0x00031de9     0xe  Code  Gb  fogCloud.o [1]
cloudServiceStatusChangedHandler
                        0x00031df7    0x14  Code  Gb  fogCloud.o [1]
cmd_str                 0x034012f4    0x40  Data  Lc  system_factory_test.o [1]
cmdbuff                 0x02016f80   0x280  Data  Lc  user_uart.o [1]
cmdnum                  0x03400cdc     0x4  Data  Lc  user_uart.o [1]
config_mode             0x03401614     0x4  Data  Lc  smart_config.o [7]
config_server_create_bool_cell
                        0x0003a5cf    0x56  Code  Gb  config_server_menu.o [1]
config_server_create_number_cell
                        0x0003a569    0x60  Code  Gb  config_server_menu.o [1]
config_server_create_sector
                        0x0003a4ed    0x1a  Code  Gb  config_server_menu.o [1]
config_server_create_string_cell
                        0x0003a507    0x62  Code  Gb  config_server_menu.o [1]
config_server_delegate_recv
                        0x00032cdb    0x98  Code  Gb  MICOConfigDelegate.o [1]
config_server_delegate_report
                        0x00032c05    0xd6  Code  Gb  MICOConfigDelegate.o [1]
config_server_start     0x000348e5    0x48  Code  Gb  config_server.o [1]
connect                 0x0000ee43    0x50  Code  Gb  mxchipWNET.o [7]
connected_ap_info       0x0000f26f    0x24  Code  Gb  mico_system_notification.o [1]
context                 0x03401500     0x4  Data  Lc  mico_system_init.o [1]
cooee_beacon_address_mask
                        0x000445d0     0x8  Data  Lc  smart_config.o [7]
cooee_beacon_address_match
                        0x000445d8     0x8  Data  Lc  smart_config.o [7]
cooee_upper_address_mask
                        0x000446c0     0x4  Data  Lc  smart_config.o [7]
cooee_upper_address_match
                        0x000446c4     0x4  Data  Lc  smart_config.o [7]
core_base_address       0x000444a8     0xc  Data  Lc  wwd_internal.o [7]
countdown               0x0003d77d    0x1e  Code  Gb  MQTTMICO.o [4]
countdown_ms            0x0003d765    0x18  Code  Gb  MQTTMICO.o [4]
country_code            0x03400408     0x4  Data  Lc  wifi.o [7]
credit_diff             0x03401761     0x1  Data  Lc  SDPCM.o [7]
curPllRate              0x03401510     0x4  Data  Lc  pll_5410x.o [1]
current_bssid_list_length
                        0x03401670     0x4  Data  Lc  wifi.o [7]
current_channel         0x03401769     0x1  Data  Lc  smart_config.o [7]
current_header          0x03401700     0x4  Data  Gb  ip.o [7]
current_iphdr_dest      0x03401708     0x4  Data  Gb  ip.o [7]
current_iphdr_src       0x03401704     0x4  Data  Gb  ip.o [7]
current_netif           0x034016fc     0x4  Data  Gb  ip.o [7]
cyassl_log              0x0002dee1    0x22  Code  Lc  logging.o [7]
cycle                   0x0003dc53    0xfa  Code  Gb  MQTTClient.o [4]
data_index              0x03401608     0x4  Data  Lc  smart_config.o [7]
data_tbl                0x0340148c     0xc  Data  Lc  smart_config.o [7]
data_validate           0x0000d259    0xb2  Code  Lc  smart_config.o [7]
debug_level             0x034016f4     0x4  Data  Gb  mxchip_debug.o [7]
debug_print             0x034015a0     0x4  Data  Lc  SDPCM.o [7]
decode_chinese          0x0000c3cd    0x8e  Code  Lc  smart_config.o [7]
deliverMessage          0x0003db8f    0x66  Code  Gb  MQTTClient.o [4]
device_activate_authorize
                        0x00037ad5   0x22c  Code  Lc  FogCloudService.o [4]
device_need_delete      0x02017e54     0x1  Data  Lc  MicoFogCloud.o [1]
dhcp_ack_option_buff    0x000446d8     0x4  Data  Lc  dhcp_server.o [7]
dhcp_bind               0x00028a99    0xd4  Code  Lc  dhcp.o [7]
dhcp_coarse_tmr         0x0002869f    0x46  Code  Gb  dhcp.o [7]
dhcp_create_msg         0x00029279   0x158  Code  Lc  dhcp.o [7]
dhcp_delete_msg         0x000293e5    0x1e  Code  Lc  dhcp.o [7]
dhcp_discover           0x000289a5    0xf4  Code  Lc  dhcp.o [7]
dhcp_fine_tmr           0x000286e5    0x44  Code  Gb  dhcp.o [7]
dhcp_handle_ack         0x000287f7    0xc6  Code  Lc  dhcp.o [7]
dhcp_handle_nak         0x0002851d    0x3a  Code  Lc  dhcp.o [7]
dhcp_handle_offer       0x00028557    0x2a  Code  Lc  dhcp.o [7]
dhcp_interrupted        0x03401778     0x1  Data  Lc  wiced_network.o [7]
dhcp_magic_cookie       0x000446e0     0x4  Data  Lc  dhcp_server.o [7]
dhcp_nak_option_buff    0x000446dc     0x4  Data  Lc  dhcp_server.o [7]
dhcp_offer_option_buff  0x000446d4     0x4  Data  Lc  dhcp_server.o [7]
dhcp_option             0x00028e97    0x26  Code  Lc  dhcp.o [7]
dhcp_option_byte        0x00028ebd    0x12  Code  Lc  dhcp.o [7]
dhcp_option_long        0x00028ef9    0x4c  Code  Lc  dhcp.o [7]
dhcp_option_short       0x00028ecf    0x2a  Code  Lc  dhcp.o [7]
dhcp_option_trailer     0x00029403    0x3a  Code  Lc  dhcp.o [7]
dhcp_parse_reply        0x00028f45   0x244  Code  Lc  dhcp.o [7]
dhcp_rebind             0x00028c2d    0xc0  Code  Lc  dhcp.o [7]
dhcp_reboot             0x00028ced    0xaa  Code  Lc  dhcp.o [7]
dhcp_recv               0x00029195    0xda  Code  Lc  dhcp.o [7]
dhcp_release            0x00028d97    0xba  Code  Gb  dhcp.o [7]
dhcp_renew              0x00028b6d    0xc0  Code  Gb  dhcp.o [7]
dhcp_rx_options_given   0x03401498     0xc  Data  Gb  dhcp.o [7]
dhcp_rx_options_val     0x02017be8    0x28  Data  Gb  dhcp.o [7]
dhcp_select             0x00028581   0x11e  Code  Lc  dhcp.o [7]
dhcp_set_state          0x00028e83    0x14  Code  Lc  dhcp.o [7]
dhcp_set_struct         0x000288bd    0x14  Code  Gb  dhcp.o [7]
dhcp_start              0x000288d1    0xd4  Code  Gb  dhcp.o [7]
dhcp_stop               0x00028e51    0x32  Code  Gb  dhcp.o [7]
dhcp_t1_timeout         0x000287bf    0x1c  Code  Lc  dhcp.o [7]
dhcp_t2_timeout         0x000287db    0x1c  Code  Lc  dhcp.o [7]
dhcp_thread             0x00029501   0x41e  Code  Lc  dhcp_server.o [7]
dhcp_timeout            0x00028729    0x96  Code  Lc  dhcp.o [7]
dhcp_timer_coarse       0x00023fcb    0x14  Code  Lc  lwiptimers.o [7]
dhcp_timer_fine         0x00023fdf    0x14  Code  Lc  lwiptimers.o [7]
digits                  0x0002a0c8    0x28  Data  Lc  xstoul.o [5]
digits                  0x0003d4f8    0x28  Data  Lc  xstoull.o [5]
disable_interrupts      0x0002a15d     0xe  Code  Gb  power_control.o [1]
dispose_chunk           0x00015349   0x584  Code  Lc  dlmalloc.o [7]
div                     0x000263c5     0xe  Code  Gb  div.o [5]
dmul                    0x0003e419    0x5a  Code  Lc  xdtento.o [6]
dns_Command             0x00012b79    0xd4  Code  Gb  wifimgr.o [7]
dns_block_name          0x03401534     0x4  Data  Lc  mxchipWNET.o [7]
dns_check_entries       0x000178eb    0x18  Code  Lc  dns.o [7]
dns_check_entry         0x0001781b    0xd0  Code  Lc  dns.o [7]
dns_clean               0x00017d17     0xe  Code  Gb  dns.o [7]
dns_client_add_server_address
                        0x0001e58d    0x42  Code  Gb  dnsclient.o [7]
dns_client_remove_all_server_addresses
                        0x0001e5cf    0x18  Code  Gb  dnsclient.o [7]
dns_compare_name        0x000176d7    0x38  Code  Lc  dns.o [7]
dns_compare_name_to_string
                        0x0003585b    0x82  Code  Lc  mico_mdns.o [1]
dns_enqueue             0x00017a71   0x100  Code  Lc  dns.o [7]
dns_found               0x0000efe3    0x42  Code  Lc  mxchipWNET.o [7]
dns_gethostbyname       0x00017b71    0x6e  Code  Gb  dns.o [7]
dns_getserver           0x00017643    0x1a  Code  Gb  dns.o [7]
dns_init                0x00017591    0x62  Code  Gb  dns.o [7]
dns_ip_addr             0x03401538     0x4  Data  Lc  mxchipWNET.o [7]
dns_ip_set              0x0000f2ff    0x1e  Code  Gb  mico_system_notification.o [1]
dns_lookup              0x0001767d    0x5a  Code  Lc  dns.o [7]
dns_mutex               0x03401530     0x4  Data  Lc  mxchipWNET.o [7]
dns_parse_name          0x0001770f    0x24  Code  Lc  dns.o [7]
dns_payload             0x03401628     0x4  Data  Lc  dns.o [7]
dns_payload_buffer      0x02017200   0x204  Data  Lc  dns.o [7]
dns_pcb                 0x03401624     0x4  Data  Lc  dns.o [7]
dns_recv                0x00017905   0x16c  Code  Lc  dns.o [7]
dns_redirector          0x02017960    0x3c  Data  Lc  wifimgr.o [7]
dns_remove_all          0x00017cfd    0x1a  Code  Lc  dns.o [7]
dns_send                0x00017733    0xe8  Code  Lc  dns.o [7]
dns_seqno               0x0340176e     0x1  Data  Lc  dns.o [7]
dns_server_address      0x02017d64    0x14  Data  Lc  wifimgr.o [7]
dns_server_address_array
                        0x02017b98    0x28  Data  Lc  dnsclient.o [7]
dns_server_address_count
                        0x034016f8     0x4  Data  Lc  dnsclient.o [7]
dns_server_num          0x0340176f     0x1  Data  Lc  dns.o [7]
dns_servers             0x034014e4     0x8  Data  Lc  dns.o [7]
dns_setserver           0x000175f3    0x50  Code  Gb  dns.o [7]
dns_show                0x00017bdf   0x11e  Code  Gb  dns.o [7]
dns_table               0x0201677c   0x460  Data  Lc  dns.o [7]
dns_thread_main         0x0001dfa5   0x14c  Code  Lc  dns_redirect.o [7]
dns_timer               0x00024005    0x14  Code  Lc  lwiptimers.o [7]
dns_tmr                 0x0001766b    0x12  Code  Gb  dns.o [7]
dns_write_record        0x0003594f    0xce  Code  Lc  mico_mdns.o [1]
dns_write_string        0x000358dd    0x72  Code  Lc  mico_mdns.o [1]
dns_write_uint16        0x00035a75    0x12  Code  Lc  mico_mdns.o [1]
do_bind                 0x0002ceeb    0x74  Code  Gb  api_msg.o [7]
do_close_internal       0x0002ccf5   0x138  Code  Lc  api_msg.o [7]
do_connect              0x0002cffd    0xd8  Code  Gb  api_msg.o [7]
do_connected            0x0002cf5f    0x9e  Code  Lc  api_msg.o [7]
do_delconn              0x0002ce2d    0xbe  Code  Gb  api_msg.o [7]
do_disconnect           0x0002d0d5    0x2e  Code  Gb  api_msg.o [7]
do_getaddr              0x0002d4b1    0xb2  Code  Gb  api_msg.o [7]
do_listen               0x0002d103    0xc6  Code  Gb  api_msg.o [7]
do_netifapi_netif_common
                        0x00029ab5    0x26  Code  Gb  netifapi.o [7]
do_newconn              0x0002cb5d    0x20  Code  Gb  api_msg.o [7]
do_recv                 0x0002d27f    0x60  Code  Gb  api_msg.o [7]
do_send                 0x0002d1cd    0xb2  Code  Gb  api_msg.o [7]
do_write                0x0002d44b    0x66  Code  Gb  api_msg.o [7]
do_writemore            0x0002d2df   0x16c  Code  Lc  api_msg.o [7]
driver_state_Command    0x0001cbd9   0x13a  Code  Gb  SDPCM.o [7]
eChannel                0x03400369     0x1  Data  Gb  ZigBeeControlBridge.o [1]
eChannelInUse           0x03401440     0x1  Data  Gb  ZigBeeControlBridge.o [1]
ePDM_DelOneNode         0x0003124f    0x66  Code  Gb  ZigBeePDM.o [1]
ePDM_Destory            0x00030f97    0x2a  Code  Gb  ZigBeePDM.o [1]
ePDM_DisplayAllNode     0x000313f5    0x5a  Code  Gb  ZigBeePDM.o [1]
ePDM_FindOneNode        0x000311f3    0x5c  Code  Gb  ZigBeePDM.o [1]
ePDM_GetNodeAliveStatus
                        0x000314bd     0x4  Code  Gb  ZigBeePDM.o [1]
ePDM_GetNodeStatus      0x000314b7     0x6  Code  Gb  ZigBeePDM.o [1]
ePDM_Init               0x00030f79    0x1e  Code  Gb  ZigBeePDM.o [1]
ePDM_ReadOneNode        0x000312b5    0x16  Code  Gb  ZigBeePDM.o [1]
ePDM_RemoveOneNode      0x000312cb    0x86  Code  Gb  ZigBeePDM.o [1]
ePDM_SaveDeviceAnnounce
                        0x000310c7   0x12c  Code  Gb  ZigBeePDM.o [1]
ePDM_SaveOneNode        0x00030fc9    0xfe  Code  Gb  ZigBeePDM.o [1]
ePDM_UpdateNodeAliveStatus
                        0x0003144f    0x68  Code  Gb  ZigBeePDM.o [1]
ePDM_WriteOneNode       0x00031351    0xa4  Code  Gb  ZigBeePDM.o [1]
eSL_MessageWait         0x00036a69    0xbc  Code  Gb  ZigBeeSerialLink.o [1]
eSL_ReadMessage         0x00036b25   0x108  Code  Gb  ZigBeeSerialLink.o [1]
eSL_SendMessage         0x000368f5    0x7a  Code  Gb  ZigBeeSerialLink.o [1]
eSL_WriteMessage        0x0003696f    0xde  Code  Lc  ZigBeeSerialLink.o [1]
eStartMode              0x03400368     0x1  Data  Gb  ZigBeeControlBridge.o [1]
eZBZLL_OnOff            0x00031d25    0xae  Code  Gb  ZigBeeZLL.o [1]
eZCB_AddAttributeReport
                        0x000314e3    0x7c  Code  Gb  ZigBeeAttributeReport.o [1]
eZCB_AddNode            0x000317b7    0xd4  Code  Gb  ZigBeeNetwork.o [1]
eZCB_ConfigureControlBridge
                        0x0002f23d   0x116  Code  Gb  ZigBeeControlBridge.o [1]
eZCB_EstablishComms     0x0002e17d    0x58  Code  Gb  ZigBeeControlBridge.o [1]
eZCB_FactoryNew         0x0002e1d5    0x48  Code  Gb  ZigBeeControlBridge.o [1]
eZCB_Finish             0x0002e149    0x34  Code  Gb  ZigBeeControlBridge.o [1]
eZCB_GetDefaultResponse
                        0x0002e89d    0x32  Code  Gb  ZigBeeControlBridge.o [1]
eZCB_HandleZcbEvent     0x0002f361   0x24c  Code  Gb  ZigBeeControlBridge.o [1]
eZCB_IEEEAddressRequest
                        0x0002e30b   0x150  Code  Gb  ZigBeeControlBridge.o [1]
eZCB_Init               0x0002e11d    0x2c  Code  Gb  ZigBeeControlBridge.o [1]
eZCB_InitAttributeReport
                        0x000314d9     0xa  Code  Gb  ZigBeeAttributeReport.o [1]
eZCB_LogAllAttribute    0x000315c5     0xe  Code  Gb  ZigBeeAttributeReport.o [1]
eZCB_NodeAddAttribute   0x00031bb3    0x84  Code  Gb  ZigBeeNetwork.o [1]
eZCB_NodeAddCluster     0x00031b2f    0x84  Code  Gb  ZigBeeNetwork.o [1]
eZCB_NodeAddCommand     0x00031c37    0x82  Code  Gb  ZigBeeNetwork.o [1]
eZCB_NodeAddEndpoint    0x00031abb    0x74  Code  Gb  ZigBeeNetwork.o [1]
eZCB_NodeDescriptorRequest
                        0x0002e461    0x70  Code  Gb  ZigBeeControlBridge.o [1]
eZCB_ReadAttributeRequest
                        0x0002e59d   0x2fc  Code  Gb  ZigBeeControlBridge.o [1]
eZCB_RemoveNode         0x0003188b    0xca  Code  Gb  ZigBeeNetwork.o [1]
eZCB_ReportAttributeToCloud
                        0x000315d3   0x13c  Code  Gb  ZigBeeAttributeReport.o [1]
eZCB_SetChannelMask     0x0002e2bb    0x28  Code  Gb  ZigBeeControlBridge.o [1]
eZCB_SetExtendedPANID   0x0002e21d    0x9e  Code  Gb  ZigBeeControlBridge.o [1]
eZCB_SetPermitJoining   0x0002e2ed    0x1e  Code  Gb  ZigBeeControlBridge.o [1]
eZCB_SimpleDescriptorRequest
                        0x0002e4d1    0xc6  Code  Gb  ZigBeeControlBridge.o [1]
eZCB_UpdateAttributeReport
                        0x0003158b    0x3a  Code  Gb  ZigBeeAttributeReport.o [1]
easyCloudContext        0x02016c40   0x338  Data  Lc  fogCloud.o [1]
easyCloudServiceThread  0x000378f5   0x1e0  Code  Lc  FogCloudService.o [4]
easyCloudServiceThreadHandle
                        0x034014c8     0x4  Data  Lc  FogCloudService.o [4]
easy_link_fail          0x0000c29f     0xe  Code  Lc  smart_config.o [7]
easy_link_main_thread   0x0000c909   0x520  Code  Lc  smart_config.o [7]
easy_link_start_cmd     0x0000ce35   0x174  Code  Lc  smart_config.o [7]
easy_link_stop          0x0000cfb5    0x3a  Code  Gb  smart_config.o [7]
easy_link_success       0x0000c34d    0x7c  Code  Lc  smart_config.o [7]
easylink2_stop          0x0000d007     0x8  Code  Gb  smart_config.o [7]
easylinkIndentifier     0x03401488     0x4  Data  Lc  system_easylink.o [1]
easylink_break          0x034015ec     0x4  Data  Lc  smart_config.o [7]
easylink_parse          0x0000dc11   0x3a8  Code  Lc  smart_config.o [7]
easylink_sem            0x03401484     0x4  Data  Lc  system_easylink.o [1]
easylink_success        0x03401480     0x1  Data  Lc  system_easylink.o [1]
easylink_thread         0x0003408d   0x122  Code  Lc  system_easylink.o [1]
easylink_user_data_result
                        0x0000f2c7    0x1e  Code  Gb  mico_system_notification.o [1]
easylinkv2_parse        0x0000dfd1   0x108  Code  Gb  smart_config.o [7]
easylinkv2_success      0x0000c4f9    0x84  Code  Lc  smart_config.o [7]
ebuf                    0x034011cc    0x50  Data  Lc  xfiles.o [5]
echo_cmd_handler        0x00033781    0x9a  Code  Lc  mico_cli.o [1]
empty_cache             0x000446a0     0x8  Data  Lc  dhcp_server.o [7]
enable_dns_redirector   0x034003e0     0x4  Data  Lc  wifimgr.o [7]
enable_interrupts       0x0002a16b    0x18  Code  Gb  power_control.o [1]
enable_ps               0x00010a81     0xa  Code  Lc  wifimgr.o [7]
err_msg                 0x0003ac00   0x118  Data  Lc  tftpc.o [2]
err_tcp                 0x0002c94f    0xb8  Code  Lc  api_msg.o [7]
err_to_errno_table      0x00042d34    0x40  Data  Lc  sockets.o [7]
errno                   0x0340153c     0x4  Data  Gb  sockets.o [7]
etharp_arp_input        0x0001ed91   0x144  Code  Lc  etharp.o [7]
etharp_cached_entry     0x03401776     0x1  Data  Lc  etharp.o [7]
etharp_find_addr        0x0001ed39    0x58  Code  Gb  etharp.o [7]
etharp_output           0x0001eed5    0xfa  Code  Gb  etharp.o [7]
etharp_query            0x0001efcf   0x198  Code  Gb  etharp.o [7]
etharp_raw              0x0001f167    0xc8  Code  Lc  etharp.o [7]
etharp_remove_all_entry
                        0x0001ed21    0x18  Code  Gb  etharp.o [7]
etharp_request          0x0001f22f    0x24  Code  Gb  etharp.o [7]
etharp_send_ip          0x0001ec2b    0x34  Code  Lc  etharp.o [7]
etharp_tmr              0x0001ea3b    0x74  Code  Gb  etharp.o [7]
ethbroadcast            0x00044670     0x8  Data  Gb  etharp.o [7]
ethernet_input          0x0001f36d    0x5c  Code  Gb  etharp.o [7]
ethernetif_init         0x000264d7    0x30  Code  Gb  wwd_network.o [7]
ethif                   0x0340170c     0x4  Data  Lc  ip.o [7]
ethzero                 0x00044678     0x8  Data  Gb  etharp.o [7]
event_callback          0x00019d21   0x160  Code  Lc  sockets.o [7]
event_list              0x0201799c    0x3c  Data  Lc  SDPCM.o [7]
event_rx_cb             0x0001a753    0x5c  Code  Gb  sockets.o [7]
event_semaphore         0x0340161c     0x4  Data  Lc  wps_host.o [7]
events                  0x03400fc4    0x60  Data  Lc  sockets.o [7]
exit                    0x0003bc39     0x4  Code  Gb  exit.o [5]
expired                 0x0003d741    0x24  Code  Gb  MQTTMICO.o [4]
fclose                  0x0003f049    0x7a  Code  Gb  fclose.o [5]
fflush                  0x0003f21f    0x34  Code  Gb  fflush.o [5]
fflushOne               0x0003f1a9    0x76  Code  Lc  fflush.o [5]
file_mtx                0x02017a50    0x20  Data  Lc  xsyslock_mtx.o [5]
fill_ssid               0x0000e451    0x54  Code  Lc  smart_config.o [7]
findChunkedDataLength   0x0003b7a5    0x54  Code  Gb  HTTPUtils.o [1]
findPllMMult            0x00036719    0x6a  Code  Gb  pll_5410x.o [1]
findPllPostDiv          0x000366c9    0x50  Code  Gb  pll_5410x.o [1]
findPllPreDiv           0x0003665d    0x6c  Code  Gb  pll_5410x.o [1]
find_entry              0x0001eaaf   0x17c  Code  Lc  etharp.o [7]
find_option             0x0002991f    0x32  Code  Lc  dhcp_server.o [7]
find_record_by_service  0x00035a87    0x3e  Code  Lc  mico_mdns.o [1]
find_ssid_by_bssid      0x0000c20b    0x38  Code  Lc  smart_config.o [7]
flags                   0x03401774     0x1  Data  Lc  tcp_in.o [7]
fogCloudConfigClient_thread
                        0x0003239d    0xc4  Code  Lc  MicoFogCloudConfigServer.o [1]
fogCloudConfigServer_listener_thread
                        0x000322c1    0xdc  Code  Lc  MicoFogCloudConfigServer.o [1]
fogCloudDevActivate     0x00031eb7    0xbc  Code  Gb  fogCloud.o [1]
fogCloudDevAuthorize    0x00031f73    0x48  Code  Gb  fogCloud.o [1]
fogCloudDevFirmwareUpdate
                        0x00031fbb   0x1e2  Code  Gb  fogCloud.o [1]
fogCloudInit            0x00031e0b    0x92  Code  Gb  fogCloud.o [1]
fogCloudResetCloudDevInfo
                        0x000321a5    0x72  Code  Gb  fogCloud.o [1]
fogCloudSendtoChannel   0x00031eab     0xc  Code  Gb  fogCloud.o [1]
fogCloudStart           0x00031e9d     0xe  Code  Gb  fogCloud.o [1]
fogNotify_WifiStatusHandler
                        0x0002b795     0xe  Code  Gb  MicoFogCloud.o [1]
fog_config_server_running
                        0x03400388     0x1  Data  Lc  MicoFogCloudConfigServer.o [1]
fogcloud_main_thread    0x0002b7a3   0x178  Code  Gb  MicoFogCloud.o [1]
formatMACAddr           0x000271d1    0x9c  Code  Gb  StringUtils.o [1]
fpuInit                 0x0002a119    0x44  Code  Gb  fpu_init.o [1]
fputc                   0x00042c05    0x56  Code  Gb  fputc.o [5]
free_ap_list            0x00011bbd    0x22  Code  Lc  wifimgr.o [7]
free_entry              0x0001ea07    0x34  Code  Lc  etharp.o [7]
free_etharp_q           0x0001e9e9    0x1e  Code  Lc  etharp.o [7]
free_socket             0x00019075    0x38  Code  Lc  sockets.o [7]
frmds_bcast_mask        0x00044304     0xc  Data  Lc  smart_config.o [7]
frmds_bcast_match       0x00044310     0xc  Data  Lc  smart_config.o [7]
frmds_brast_pattern     0x00044328     0xc  Data  Lc  smart_config.o [7]
frmds_filter            0x00044364     0xc  Data  Lc  smart_config.o [7]
fseek                   0x00042ab9    0x22  Code  Gb  fseek.o [5]
gApAdvList              0x034014bc     0x8  Data  Lc  wifimgr.o [7]
gApList                 0x034014b4     0x8  Data  Lc  wifimgr.o [7]
g_CurrentFreq           0x02017c50     0x4  Data  Gb  power_control.o [1]
g_ap_entry              0x03400eec    0x70  Data  Lc  wifimgr.o [7]
g_freqCtrl              0x02017c44     0x8  Data  Gb  power_control.o [1]
g_irqDisCnt             0x02017c54     0x4  Data  Gb  power_control.o [1]
g_isWlanRx              0x02017b62     0x1  Data  Gb  wlan_bus_spi.o [1]
g_ota_partion_offset    0x03400348     0x4  Data  Lc  FogCloudUtils.o [4]
g_ota_storage           0x03400338     0x8  Data  Gb  FogCloudUtils.o [4]
g_pASys                 0x034003a8     0x4  Data  Gb  platform_init.o [1]
g_pDMA                  0x03400190     0x4  Data  Gb  platform_init.o [1]
g_pFIFO                 0x034003c4     0x4  Data  Gb  platform_init.o [1]
g_pGP                   0x034003b0     0x4  Data  Gb  platform_init.o [1]
g_pIO                   0x034003ac     0x4  Data  Gb  platform_init.o [1]
g_pInMux                0x034003b4     0x4  Data  Gb  platform_init.o [1]
g_pNVIC                 0x034003c8     0x4  Data  Gb  platform_init.o [1]
g_pPMU                  0x034003c0     0x4  Data  Gb  platform_init.o [1]
g_pPWRD                 0x02017c4c     0x4  Data  Gb  power_control.o [1]
g_pSCB                  0x034003cc     0x4  Data  Gb  platform_init.o [1]
g_pSPI0                 0x034003b8     0x4  Data  Gb  platform_init.o [1]
g_pSPI1                 0x034003bc     0x4  Data  Gb  platform_init.o [1]
g_pSys                  0x0340018c     0x4  Data  Gb  platform_init.o [1]
g_pSysTick              0x034003d0     0x4  Data  Gb  platform_init.o [1]
g_pwrPrm                0x02017c34    0x10  Data  Gb  power_control.o [1]
g_xferCnt               0x02017b64     0x4  Data  Gb  wlan_bus_spi.o [1]
g_xferDoneCnt           0x02017b68     0x4  Data  Gb  wlan_bus_spi.o [1]
generic_sflash_command  0x0003652d    0x7a  Code  Gb  spi_flash.o [1]
getMVDActivateRequestData
                        0x00032d73    0x86  Code  Gb  MICOConfigDelegate.o [1]
getMVDAuthorizeRequestData
                        0x00032df9    0x86  Code  Gb  MICOConfigDelegate.o [1]
getMVDGetStateRequestData
                        0x00032efd    0x86  Code  Gb  MICOConfigDelegate.o [1]
getMVDOTARequestData    0x00032e87     0x2  Code  Gb  MICOConfigDelegate.o [1]
getMVDResetRequestData  0x00032e85     0x2  Code  Gb  MICOConfigDelegate.o [1]
getNetPara              0x0000ea35    0xb6  Code  Gb  mxchipWNET.o [7]
get_client_ip_address_from_cache
                        0x00029951    0x3e  Code  Lc  dhcp_server.o [7]
get_easylink_channel_list
                        0x00012241    0xcc  Code  Gb  wifimgr.o [7]
get_ethnetif            0x0001d26d     0x8  Code  Gb  ip.o [7]
get_event_by_fd         0x0001a69d    0x2c  Code  Lc  sockets.o [7]
get_fd_by_event         0x0001a6c9    0x24  Code  Lc  sockets.o [7]
get_input               0x000332cd    0xa4  Code  Lc  mico_cli.o [1]
get_max_channel         0x000147d5    0x2c  Code  Gb  wifi.o [7]
get_rom_data            0x00037d0d   0x27c  Code  Lc  FogCloudService.o [4]
get_rom_version         0x00037f8f   0x1a6  Code  Lc  FogCloudService.o [4]
get_scan_result_adv_list
                        0x00011569    0x68  Code  Lc  wifimgr.o [7]
get_scan_result_list    0x000114c5    0x68  Code  Lc  wifimgr.o [7]
get_socket              0x00018f63    0x30  Code  Lc  sockets.o [7]
get_ssid_key_end        0x0000c6cf    0x1c  Code  Lc  smart_config.o [7]
get_sta_connection      0x00010d3b     0x8  Code  Gb  wifimgr.o [7]
get_version             0x00033631   0x14c  Code  Lc  mico_cli.o [1]
gethostbyname           0x0000f025    0xca  Code  Gb  mxchipWNET.o [7]
getsockopt              0x0000edf5    0x1a  Code  Gb  mxchipWNET.o [7]
gspi_command_mapping    0x0000f4b2     0x2  Data  Lc  wwd_bus_protocol.o [7]
handle_input            0x00033045   0x1d8  Code  Lc  mico_cli.o [1]
hard_fault_handler_c    0x00041b69   0x206  Code  Gb  hardfault.o [1]
health_monitor_thread   0x000120d5   0x154  Code  Lc  wifimgr.o [7]
help_command            0x000335ad    0x78  Code  Lc  mico_cli.o [1]
host_buffer_add_remove_at_front
                        0x00016f0b    0x1a  Code  Gb  wwd_buffer.o [7]
host_buffer_get         0x00016ea5    0x56  Code  Gb  wwd_buffer.o [7]
host_buffer_get_current_piece_data_pointer
                        0x00016f03     0x4  Code  Gb  wwd_buffer.o [7]
host_buffer_get_current_piece_size
                        0x00016f07     0x4  Code  Gb  wwd_buffer.o [7]
host_buffer_init        0x00016ea1     0x4  Code  Gb  wwd_buffer.o [7]
host_buffer_release     0x00016efb     0x8  Code  Gb  wwd_buffer.o [7]
host_buffer_set_data_end
                        0x00016f25     0xe  Code  Gb  wwd_buffer.o [7]
host_network_process_eapol_data
                        0x0002ddb1    0x38  Code  Gb  wps_host.o [7]
host_network_process_ethernet_data
                        0x0002645f    0x78  Code  Gb  wwd_network.o [7]
host_network_process_raw_packet
                        0x0000e4c9   0x38e  Code  Gb  smart_config.o [7]
host_platform_bus_deinit
                        0x00024e9b    0x26  Code  Gb  wlan_bus_spi.o [1]
host_platform_bus_init  0x00024ddd    0xbe  Code  Gb  wlan_bus_spi.o [1]
host_platform_deinit    0x00021b45     0x2  Code  Gb  wlan_platform_common.o [1]
host_platform_deinit_wlan_powersave_clock
                        0x00021b6d     0x4  Code  Gb  wlan_platform_common.o [1]
host_platform_init      0x00021b41     0x4  Code  Gb  wlan_platform_common.o [1]
host_platform_init_wlan_powersave_clock
                        0x000259e9    0x10  Code  Gb  wlan_platform.o [1]
host_platform_is_in_interrupt_context
                        0x00021b5b    0x12  Code  Gb  wlan_platform_common.o [1]
host_platform_is_sdio_int_asserted
                        0x000257a1     0x4  Code  Wk  wwd_thread.o [7]
host_platform_memory_wifi_nvram_size
                        0x0002dc2b     0x6  Code  Wk  wwd_firmware.o [7]
host_platform_power_wifi
                        0x00021b3f     0x2  Code  Gb  wlan_platform_common.o [1]
host_platform_read_memory_wifi_firmware
                        0x0002db61    0x50  Code  Gb  wwd_firmware.o [7]
host_platform_read_memory_wifi_nvram
                        0x0002dbb1    0x7a  Code  Gb  wwd_firmware.o [7]
host_platform_read_wifi_firmware
                        0x0003688d     0x8  Code  Gb  read_wifi_firmware.o [7]
host_platform_read_wifi_nvram
                        0x00036895     0x8  Code  Gb  read_wifi_firmware.o [7]
host_platform_read_wifi_nvram_image
                        0x0002dc31     0x6  Code  Wk  wwd_firmware.o [7]
host_platform_reset_wifi
                        0x00021b2d    0x12  Code  Gb  wlan_platform_common.o [1]
host_platform_spi_transfer
                        0x00025081    0x2c  Code  Gb  wlan_bus_spi.o [1]
host_platform_wifi_nvram_size
                        0x0003689d     0x8  Code  Gb  read_wifi_firmware.o [7]
host_rtos_create_thread
                        0x00017d7d    0x18  Code  Gb  wwd_rtos.o [7]
host_rtos_create_thread_with_arg
                        0x00017d95    0x36  Code  Gb  wwd_rtos.o [7]
host_rtos_deinit_semaphore
                        0x00017e5f    0x16  Code  Gb  wwd_rtos.o [7]
host_rtos_delay_milliseconds
                        0x00017e83    0x18  Code  Gb  wwd_rtos.o [7]
host_rtos_delete_terminated_thread
                        0x00017dd7     0x4  Code  Gb  wwd_rtos.o [7]
host_rtos_finish_thread
                        0x00017dcb     0xc  Code  Gb  wwd_rtos.o [7]
host_rtos_get_semaphore
                        0x00017dfd    0x20  Code  Gb  wwd_rtos.o [7]
host_rtos_get_time      0x00017e75     0xe  Code  Gb  wwd_rtos.o [7]
host_rtos_init_semaphore
                        0x00017ddb    0x22  Code  Gb  wwd_rtos.o [7]
host_rtos_set_semaphore
                        0x00017e1d    0x42  Code  Gb  wwd_rtos.o [7]
hostname                0x02017cdc    0x20  Data  Lc  wiced_network.o [7]
htobe16                 0x0001df0d     0xc  Code  Lc  dns_redirect.o [7]
htobe32                 0x0001df19    0x18  Code  Lc  dns_redirect.o [7]
htobe32                 0x00029465    0x18  Code  Lc  dhcp_server.o [7]
htonl                   0x0000ed5f     0x8  Code  Gb  mxchipWNET.o [7]
htons                   0x0000ed53     0xc  Code  Gb  mxchipWNET.o [7]
icmp_dest_unreach       0x00026a9d     0xe  Code  Gb  icmp.o [7]
icmp_input              0x00026929   0x16c  Code  Gb  icmp.o [7]
icmp_send_response      0x00026aab     0x2  Code  Lc  icmp.o [7]
ifconfig_Command        0x00012841   0x194  Code  Gb  wifimgr.o [7]
igmp_delaying_member    0x00024bf7    0x30  Code  Lc  igmp.o [7]
igmp_group_list         0x0340168c     0x4  Data  Lc  igmp.o [7]
igmp_init               0x00024799    0x20  Code  Gb  igmp.o [7]
igmp_input              0x0002495d    0xfa  Code  Gb  igmp.o [7]
igmp_ip_output_if       0x00024c27    0x2e  Code  Lc  igmp.o [7]
igmp_joingroup          0x00024a57    0xa0  Code  Gb  igmp.o [7]
igmp_leavegroup         0x00024af7    0xa6  Code  Gb  igmp.o [7]
igmp_lookfor_group      0x00024897    0x28  Code  Gb  igmp.o [7]
igmp_lookup_group       0x000248bf    0x50  Code  Lc  igmp.o [7]
igmp_remove_group       0x0002490f    0x4e  Code  Lc  igmp.o [7]
igmp_report_groups      0x00024875    0x22  Code  Gb  igmp.o [7]
igmp_send               0x00024c55    0x88  Code  Lc  igmp.o [7]
igmp_start              0x000247b9    0x68  Code  Gb  igmp.o [7]
igmp_start_timer        0x00024bd5    0x1c  Code  Lc  igmp.o [7]
igmp_stop               0x00024821    0x54  Code  Gb  igmp.o [7]
igmp_stop_timer         0x00024bf1     0x6  Code  Lc  igmp.o [7]
igmp_timeout            0x00024bc5    0x10  Code  Lc  igmp.o [7]
igmp_timer              0x00023ff3    0x12  Code  Lc  lwiptimers.o [7]
igmp_tmr                0x00024b9d    0x28  Code  Gb  igmp.o [7]
image_size              0x03401518     0x4  Data  Lc  wlan_platform_common.o [1]
inet_addr               0x0000ed2b     0xc  Code  Gb  mxchipWNET.o [7]
inet_chksum             0x000266f9     0xe  Code  Gb  inet_chksum.o [7]
inet_chksum_pbuf        0x00026707    0x56  Code  Gb  inet_chksum.o [7]
inet_chksum_pseudo      0x00026651    0xa8  Code  Gb  inet_chksum.o [7]
inet_ntoa               0x0000ed37    0x1c  Code  Gb  mxchipWNET.o [7]
init_architecture       0x0002113d    0x6a  Code  Gb  platform_init.o [1]
init_bins               0x00014a6f    0x1a  Code  Lc  dlmalloc.o [7]
init_clocks             0x00021103    0x38  Code  Gb  platform_init.o [1]
init_memory             0x0002113b     0x2  Code  Wk  platform_init.o [1]
init_mparams            0x0001484f    0x70  Code  Lc  dlmalloc.o [7]
init_platform           0x000213ff    0x44  Code  Gb  platform.o [1]
init_sflash             0x000364d3    0x5a  Code  Gb  spi_flash.o [1]
init_top                0x00014a33    0x3c  Code  Lc  dlmalloc.o [7]
initlocks               0x0002c5f1    0x6e  Code  Lc  xsyslock_mtx.o [5]
inseg                   0x02017d8c    0x14  Data  Lc  tcp_in.o [7]
insert_cb               0x03401574     0x4  Data  Lc  wifimgr.o [7]
insert_magic_code       0x0000d47d    0x72  Code  Lc  smart_config.o [7]
insert_result_by_rssi   0x00011a19    0x6c  Code  Lc  wifimgr.o [7]
insert_tbl              0x0000c799   0x132  Code  Lc  smart_config.o [7]
internalFlashWrite      0x0002c2c3   0x156  Code  Lc  platform_flash.o [1]
internal_FogCloudMQTTClientPublishto
                        0x0003d01b    0x60  Code  Lc  FogCloudMQTTClient.o [4]
internal_dhcp_server    0x02017a14    0x38  Data  Lc  wiced_network.o [7]
internal_format_topic_msg_buf
                        0x0003ce25    0x8c  Code  Lc  FogCloudMQTTClient.o [4]
internal_loopbackMsg    0x0003ceb1    0x76  Code  Lc  FogCloudMQTTClient.o [4]
internal_mallinfo       0x000148bf    0xde  Code  Lc  dlmalloc.o [7]
internal_packet_create  0x000174cb    0x62  Code  Lc  tcpip.o [7]
internal_udp_send       0x0001752d    0x5a  Code  Lc  tcpip.o [7]
internal_update_config  0x00026e05    0xdc  Code  Lc  mico_system_para_storage.o [1]
ioctl_abort_count       0x03401590     0x4  Data  Lc  SDPCM.o [7]
ioctl_req_sent          0x03401763     0x1  Data  Lc  SDPCM.o [7]
ip4_addr_isbroadcast    0x00018cd1    0x4c  Code  Gb  ip_addr.o [7]
ip_addr_any             0x000446c8     0x4  Data  Gb  ip_addr.o [7]
ip_addr_broadcast       0x000446cc     0x4  Data  Gb  ip_addr.o [7]
ip_id                   0x03401752     0x2  Data  Lc  ip.o [7]
ip_input                0x0001d2e7   0x22c  Code  Gb  ip.o [7]
ip_networking_up        0x03401754     0x2  Data  Lc  wiced_network.o [7]
ip_output               0x0001d6cb    0x34  Code  Gb  ip.o [7]
ip_output_if            0x0001d513    0x22  Code  Gb  ip.o [7]
ip_output_if_opt        0x0001d535   0x196  Code  Gb  ip.o [7]
ip_route                0x0001d275    0x72  Code  Gb  ip.o [7]
ipaddr_addr             0x00018d1d    0x16  Code  Gb  ip_addr.o [7]
ipaddr_aton             0x00018d33   0x158  Code  Gb  ip_addr.o [7]
ipaddr_ntoa             0x00018e8b     0xc  Code  Gb  ip_addr.o [7]
ipaddr_ntoa_r           0x00018e9d    0x8e  Code  Gb  ip_addr.o [7]
iphdr                   0x03401678     0x4  Data  Lc  tcp_in.o [7]
ipv4_to_string          0x00029a6d    0x48  Code  Lc  dhcp_server.o [7]
isTopicMatched          0x0003db19    0x76  Code  Gb  MQTTClient.o [4]
is_buffer_in_send_queue
                        0x0001cb91    0x30  Code  Gb  SDPCM.o [7]
is_config_server_established
                        0x02017c7c     0x1  Data  Gb  config_server.o [1]
is_ps_enabled           0x0000ec99     0x8  Code  Gb  mxchipWNET.o [7]
is_valid_channel        0x0000d06d    0x4e  Code  Lc  smart_config.o [7]
isalpha                 0x0002de8f    0x14  Code  Gb  isxxx.o [5]
ispunct                 0x0002dea3    0x14  Code  Gb  isxxx.o [5]
isspace                 0x0002deb7    0x14  Code  Gb  isxxx.o [5]
isudp                   0x034003f4     0x4  Data  Lc  mftest.o [7]
join_events             0x00043938    0x1c  Data  Gb  wwd_wifi.o [7]
join_fail               0x0000f333    0x1a  Code  Gb  mico_system_notification.o [1]
json_escape_str         0x0002fa6d    0xde  Code  Lc  json_object.o [1]
json_hex_chars          0x0340039c     0x4  Data  Gb  json_object.o [1]
json_number_chars       0x03400398     0x4  Data  Gb  json_object.o [1]
json_object_array_add   0x000300a3     0x6  Code  Gb  json_object.o [1]
json_object_array_delete
                        0x00030051     0xc  Code  Lc  json_object.o [1]
json_object_array_entry_free
                        0x00030041    0x10  Code  Lc  json_object.o [1]
json_object_array_to_json_string
                        0x0002ff9d    0x5e  Code  Lc  json_object.o [1]
json_object_boolean_to_json_string
                        0x0002fcdf    0x16  Code  Lc  json_object.o [1]
json_object_double_to_json_string
                        0x0002febb    0x14  Code  Lc  json_object.o [1]
json_object_generic_delete
                        0x0002fb65     0x6  Code  Lc  json_object.o [1]
json_object_get         0x0002fb4b     0xa  Code  Gb  json_object.o [1]
json_object_get_boolean
                        0x0002fd25    0x48  Code  Gb  json_object.o [1]
json_object_get_int     0x0002fdb7    0x7a  Code  Gb  json_object.o [1]
json_object_get_int64   0x0002fe6d    0x4e  Code  Gb  json_object.o [1]
json_object_get_object  0x0002fcad    0x10  Code  Gb  json_object.o [1]
json_object_get_string  0x0002ff7d    0x10  Code  Gb  json_object.o [1]
json_object_get_string_len
                        0x0002ff8d    0x10  Code  Gb  json_object.o [1]
json_object_int_to_json_string
                        0x0002fd6d    0x14  Code  Lc  json_object.o [1]
json_object_lh_entry_free
                        0x0002fc29    0x20  Code  Lc  json_object.o [1]
json_object_new_array   0x0003005d    0x40  Code  Gb  json_object.o [1]
json_object_new_boolean
                        0x0002fcf5    0x28  Code  Gb  json_object.o [1]
json_object_new_double  0x0002fecf    0x2a  Code  Gb  json_object.o [1]
json_object_new_int     0x0002fd8d    0x2a  Code  Gb  json_object.o [1]
json_object_new_int64   0x0002fe31    0x2a  Code  Gb  json_object.o [1]
json_object_new_object  0x0002fc63    0x3c  Code  Gb  json_object.o [1]
json_object_new_string  0x0002ff3b    0x3e  Code  Gb  json_object.o [1]
json_object_object_add  0x0002fcbd    0x22  Code  Gb  json_object.o [1]
json_object_object_delete
                        0x0002fc49     0xa  Code  Lc  json_object.o [1]
json_object_object_to_json_string
                        0x0002fb9f    0x8a  Code  Lc  json_object.o [1]
json_object_put         0x0002fb55    0x10  Code  Gb  json_object.o [1]
json_object_string_delete
                        0x0002ff2f     0xc  Code  Lc  json_object.o [1]
json_object_string_to_json_string
                        0x0002ff09    0x26  Code  Lc  json_object.o [1]
json_object_to_json_string
                        0x0002fb6b    0x34  Code  Gb  json_object.o [1]
json_parse_int64        0x00037139    0xe0  Code  Gb  json_util.o [1]
json_tokener_parse      0x000300cd    0xba  Code  Gb  json_tokener.o [1]
json_tokener_parse_ex   0x00030189   0xdd2  Code  Gb  json_tokener.o [1]
keep_alive_ms           0x03401640     0x4  Data  Lc  tcp.o [7]
keep_cnt                0x03401644     0x4  Data  Lc  tcp.o [7]
keepalive               0x0003dbf5    0x5e  Code  Gb  MQTTClient.o [4]
largest_credit_diff     0x03401762     0x1  Data  Lc  SDPCM.o [7]
last_bus_data_credit    0x03401760     0x1  Data  Lc  SDPCM.o [7]
last_event              0x0340176c     0x1  Data  Lc  wps_host.o [7]
last_no_bus_credit_time
                        0x03401580     0x4  Data  Lc  wifimgr.o [7]
lease_time_option_buff  0x00044698     0x8  Data  Lc  dhcp_server.o [7]
led_blink               0x00029bc5     0x2  Code  Lc  mftest.o [7]
left_ms                 0x0003d79b    0x28  Code  Gb  MQTTMICO.o [4]
lh_abort                0x00036db5    0x10  Code  Gb  linkhash.o [1]
lh_char_equal           0x00036de1     0xe  Code  Gb  linkhash.o [1]
lh_char_hash            0x00036dc5    0x1c  Code  Gb  linkhash.o [1]
lh_kchar_table_new      0x00036def    0x42  Code  Gb  linkhash.o [1]
lh_table_delete         0x0003708f    0x1a  Code  Gb  linkhash.o [1]
lh_table_delete_entry   0x00036ff1    0x9e  Code  Gb  linkhash.o [1]
lh_table_free           0x00036ee9    0x28  Code  Gb  linkhash.o [1]
lh_table_insert         0x00036f11    0x86  Code  Gb  linkhash.o [1]
lh_table_lookup_entry   0x00036f97    0x5a  Code  Gb  linkhash.o [1]
lh_table_resize         0x00036e59    0x90  Code  Gb  linkhash.o [1]
link_down_callbacks     0x02017e40    0x14  Data  Lc  wiced_network.o [7]
link_events             0x00044280     0xc  Data  Lc  wifimgr.o [7]
link_subscribe_mutex    0x03401718     0x4  Data  Lc  wiced_network.o [7]
link_up_callbacks       0x02017e2c    0x14  Data  Lc  wiced_network.o [7]
listen                  0x0000ee93     0x8  Code  Gb  mxchipWNET.o [7]
localConfig_thread      0x00034a65   0x17e  Code  Lc  config_server.o [1]
localConfiglistener_thread
                        0x0003492d   0x138  Code  Lc  config_server.o [1]
localeconv              0x00026393    0x16  Code  Gb  localeconv.o [5]
log_function            0x0340173c     0x4  Data  Lc  logging.o [7]
loggingEnabled          0x03401740     0x4  Data  Lc  logging.o [7]
loop_netif              0x034012b0    0x44  Data  Lc  netif.o [7]
low_level_init          0x000263f9    0x3a  Code  Lc  wwd_network.o [7]
low_level_output        0x00026433    0x2c  Code  Lc  wwd_network.o [7]
lwip_accept             0x000190ad   0x166  Code  Gb  sockets.o [7]
lwip_bind               0x00019213    0x9c  Code  Gb  sockets.o [7]
lwip_close              0x000192af    0x44  Code  Gb  sockets.o [7]
lwip_connect            0x000192f3    0xac  Code  Gb  sockets.o [7]
lwip_getsockopt         0x00019e81   0x196  Code  Gb  sockets.o [7]
lwip_getsockopt_internal
                        0x0001a019   0x1ec  Code  Lc  sockets.o [7]
lwip_htonl              0x00018f41    0x18  Code  Gb  def.o [7]
lwip_htons              0x00018f2b     0xc  Code  Gb  def.o [7]
lwip_igmp_mac_filter    0x00026509    0x5a  Code  Lc  wwd_network.o [7]
lwip_init               0x0002d585    0x20  Code  Gb  init.o [7]
lwip_ioctl              0x0001a5c1    0xd8  Code  Gb  sockets.o [7]
lwip_listen             0x0001939f    0x74  Code  Gb  sockets.o [7]
lwip_ntohl              0x00018f59     0x8  Code  Gb  def.o [7]
lwip_ntohs              0x00018f37     0xa  Code  Gb  def.o [7]
lwip_recv               0x0001965f    0x10  Code  Gb  sockets.o [7]
lwip_recvfrom           0x00019413   0x24c  Code  Gb  sockets.o [7]
lwip_select             0x00019a91   0x288  Code  Gb  sockets.o [7]
lwip_selscan            0x000198d5   0x1bc  Code  Lc  sockets.o [7]
lwip_send               0x0001966f    0xb8  Code  Gb  sockets.o [7]
lwip_sendto             0x00019727   0x102  Code  Gb  sockets.o [7]
lwip_setsockopt         0x0001a205   0x1c2  Code  Gb  sockets.o [7]
lwip_setsockopt_internal
                        0x0001a3d1   0x1f0  Code  Lc  sockets.o [7]
lwip_socket             0x00019829    0xa2  Code  Gb  sockets.o [7]
lwip_socket_init        0x00018f61     0x2  Code  Gb  sockets.o [7]
lwip_standard_chksum    0x000265ed    0x64  Code  Lc  inet_chksum.o [7]
mDNS_fd                 0x034002f0     0x4  Data  Lc  mico_mdns.o [1]
mac_monitor             0x034015f8     0x4  Data  Lc  smart_config.o [7]
mac_report_cb           0x0000f1d9     0x2  Code  Wk  mxchipWNET.o [7]
magic_code_valide       0x0000d31d   0x156  Code  Lc  smart_config.o [7]
magic_tbl               0x02017b70    0x28  Data  Lc  smart_config.o [7]
main                    0x00013079    0x68  Code  Gb  wiced_rtos.o [7]
max_bus_credit_diff     0x034003e8     0x4  Data  Lc  SDPCM.o [7]
max_channel             0x034003f8     0x4  Data  Lc  smart_config.o [7]
max_channel_index       0x034015dc     0x4  Data  Lc  smart_config.o [7]
max_syscall_int_prio    0x03401550     0x4  Data  Gb  wiced_rtos.o [7]
mbox                    0x034016a4     0x4  Data  Lc  lwiptcpip.o [7]
mcs_data_rate_lookup_table
                        0x00042704   0x100  Data  Lc  wwd_wifi.o [7]
mdns_add_record         0x00035b61   0x102  Code  Gb  mico_mdns.o [1]
mdns_addr               0x03401698     0x4  Data  Lc  igmp.o [7]
mdns_process_query      0x00035759    0xfc  Code  Lc  mico_mdns.o [1]
mdns_resume_record      0x00035d77    0x88  Code  Gb  mico_mdns.o [1]
mdns_send_message       0x00035a1d    0x58  Code  Lc  mico_mdns.o [1]
mdns_suspend_record     0x00035ccf    0xa8  Code  Gb  mico_mdns.o [1]
mdns_update_txt_record  0x00035c63    0x6c  Code  Gb  mico_mdns.o [1]
memchr                  0x00025a31          Code  Gb  memchr.o [8]
memory_dump_Command     0x00012d7d    0xa0  Code  Gb  wifimgr.o [7]
memory_set_Command      0x00012e21    0x96  Code  Gb  wifimgr.o [7]
memory_show_Command     0x00012d05    0x6e  Code  Gb  wifimgr.o [7]
memp_desc               0x034001ec    0x40  Data  Lc  memp.o [7]
memp_desc_get           0x00024339     0xa  Code  Gb  memp.o [7]
memp_dump_Command       0x00024343    0xae  Code  Gb  memp.o [7]
memp_free               0x000242f3    0x26  Code  Gb  memp.o [7]
memp_head               0x03401374    0x40  Data  Lc  memp.o [7]
memp_in_use             0x00024319    0x20  Code  Gb  memp.o [7]
memp_init               0x00024261    0x62  Code  Gb  memp.o [7]
memp_malloc             0x000242c3    0x30  Code  Gb  memp.o [7]
memp_memory             0x02011100  0x517c  Data  Lc  memp.o [7]
memp_num                0x000436ac    0x20  Data  Lc  memp.o [7]
memp_sizes              0x0004368c    0x20  Data  Lc  memp.o [7]
memp_tab                0x03401334    0x40  Data  Lc  memp.o [7]
messageArrived          0x0003c94f    0x1e  Code  Gb  FogCloudMQTTClient.o [4]
mf_join_ap              0x00029c29    0x2a  Code  Lc  mftest.o [7]
mf_printf               0x0001e61d    0x16  Code  Gb  system_factory_test.o [1]
mfg_connect             0x00029dbd   0x138  Code  Gb  mftest.o [7]
mfg_scan                0x00029d7d    0x40  Code  Gb  mftest.o [7]
mfi_bonjour_thread_handler
                        0x03400308     0x4  Data  Lc  mico_mdns.o [1]
mgmt_smart_type         0x034015f0     0x4  Data  Lc  smart_config.o [7]
micoNotify_ConnectFailedHandler
                        0x0001d78d     0x2  Code  Lc  system_misc.o [1]
micoNotify_DHCPCompleteHandler
                        0x0001d741    0x4c  Code  Lc  system_misc.o [1]
micoNotify_StackOverflowErrHandler
                        0x0001d793     0x4  Code  Lc  system_misc.o [1]
micoNotify_WiFIParaChangedHandler
                        0x0001d7b5    0xb4  Code  Lc  system_misc.o [1]
micoNotify_WifiStatusHandler
                        0x0001d797    0x1e  Code  Lc  system_misc.o [1]
micoNotify_WlanFatalErrHandler
                        0x0001d78f     0x4  Code  Lc  system_misc.o [1]
mico_cpu_clock_hz       0x00043f24     0x4  Data  Gb  mico_config.o [1]
mico_create_event_fd    0x0001a6ed    0x2e  Code  Gb  sockets.o [7]
mico_deinit_timer       0x00013825    0x22  Code  Gb  wiced_rtos.o [7]
mico_delete_event_fd    0x0001a71b    0x38  Code  Gb  sockets.o [7]
mico_easylink_bonjour_start
                        0x0003439f   0x20a  Code  Lc  system_easylink.o [1]
mico_easylink_bonjour_update
                        0x000345ad   0x154  Code  Lc  system_easylink.o [1]
mico_get_bootloader_ver
                        0x000226c9    0x6a  Code  Gb  mico_platform_common.o [1]
mico_get_time           0x0000f0ef     0x8  Code  Gb  mxchipWNET.o [7]
mico_init_timer         0x00013719    0x32  Code  Gb  wiced_rtos.o [7]
mico_memory_info        0x0000f1b1    0x28  Code  Wk  mxchipWNET.o [7]
mico_nmode_enable       0x00043f2c     0x4  Data  Gb  mico_config.o [1]
mico_ota_finished       0x0003ad19    0x44  Code  Wk  tftp_ota.o [1]
mico_partitions         0x00042564    0xa0  Data  Gb  platform.o [1]
mico_platform_init      0x00022229     0xa  Code  Gb  mico_platform_common.o [1]
mico_rtos_create_thread
                        0x000134b5    0x52  Code  Gb  wiced_rtos.o [7]
mico_rtos_deinit_mutex  0x00013635     0xc  Code  Gb  wiced_rtos.o [7]
mico_rtos_deinit_queue  0x000136cd     0xc  Code  Gb  wiced_rtos.o [7]
mico_rtos_deinit_semaphore
                        0x000135c9    0x16  Code  Gb  wiced_rtos.o [7]
mico_rtos_delete_thread
                        0x00013507    0x24  Code  Gb  wiced_rtos.o [7]
mico_rtos_get_semaphore
                        0x00013563    0x22  Code  Gb  wiced_rtos.o [7]
mico_rtos_init_mutex    0x000135df    0x1c  Code  Gb  wiced_rtos.o [7]
mico_rtos_init_queue    0x00013641    0x1e  Code  Gb  wiced_rtos.o [7]
mico_rtos_init_semaphore
                        0x00013545    0x1e  Code  Gb  wiced_rtos.o [7]
mico_rtos_is_queue_empty
                        0x000136d9    0x20  Code  Gb  wiced_rtos.o [7]
mico_rtos_is_queue_full
                        0x000136f9    0x20  Code  Gb  wiced_rtos.o [7]
mico_rtos_lock_mutex    0x000135fb    0x1e  Code  Gb  wiced_rtos.o [7]
mico_rtos_pop_from_queue
                        0x000136ad    0x20  Code  Gb  wiced_rtos.o [7]
mico_rtos_push_to_queue
                        0x0001365f    0x4e  Code  Gb  wiced_rtos.o [7]
mico_rtos_set_semaphore
                        0x00013585    0x44  Code  Gb  wiced_rtos.o [7]
mico_rtos_stack_overflow
                        0x0000f363    0x1a  Code  Gb  mico_system_notification.o [1]
mico_rtos_thread_join   0x0001352b    0x1a  Code  Gb  wiced_rtos.o [7]
mico_rtos_unlock_mutex  0x00013619    0x1c  Code  Gb  wiced_rtos.o [7]
mico_spi_flash          0x00042544     0xc  Data  Gb  platform.o [1]
mico_start_timer        0x00013785    0x54  Code  Gb  wiced_rtos.o [7]
mico_stop_timer         0x000137d9    0x4c  Code  Gb  wiced_rtos.o [7]
mico_system_context_get
                        0x0002bceb     0x6  Code  Gb  mico_system_init.o [1]
mico_system_context_get_user_data
                        0x0002bcf1     0x6  Code  Gb  mico_system_init.o [1]
mico_system_context_init
                        0x0002bc99    0x52  Code  Gb  mico_system_init.o [1]
mico_system_context_restore
                        0x00026ee1    0x4c  Code  Gb  mico_system_para_storage.o [1]
mico_system_context_update
                        0x00027193    0x14  Code  Gb  mico_system_para_storage.o [1]
mico_system_delegate_config_recv_auth_data
                        0x0003b089     0x4  Code  Wk  system_easylink_delegate.o [1]
mico_system_delegate_config_recv_ssid
                        0x00032bd9    0x1c  Code  Gb  MICOConfigDelegate.o [1]
mico_system_delegate_config_success
                        0x00032c03     0x2  Code  Gb  MICOConfigDelegate.o [1]
mico_system_delegate_config_will_start
                        0x00032b93    0x2a  Code  Gb  MICOConfigDelegate.o [1]
mico_system_delegate_config_will_stop
                        0x00032bbd    0x1c  Code  Gb  MICOConfigDelegate.o [1]
mico_system_init        0x0002bcf7    0x52  Code  Gb  mico_system_init.o [1]
mico_system_notify_register
                        0x0000f37d    0x50  Code  Gb  mico_system_notification.o [1]
mico_system_notify_remove
                        0x0000f3cd    0x3e  Code  Gb  mico_system_notification.o [1]
mico_system_notify_remove_all
                        0x0000f40b    0x20  Code  Gb  mico_system_notification.o [1]
mico_system_power_daemon_start
                        0x0002b0cd    0x2e  Code  Gb  mico_system_power_daemon.o [1]
mico_system_power_perform
                        0x0002b0fb    0x28  Code  Gb  mico_system_power_daemon.o [1]
mico_tick_rate_hz       0x00043f20     0x4  Data  Gb  mico_config.o [1]
min                     0x000384b9     0xa  Code  Lc  md5.o [7]
minus_data_decode       0x0000d7b5   0x17e  Code  Lc  smart_config.o [7]
minus_got_pkt           0x034014dc     0x8  Data  Lc  smart_config.o [7]
minus_pkt_len           0x0340176b     0x1  Data  Lc  smart_config.o [7]
minus_pkt_num           0x0340176a     0x1  Data  Lc  smart_config.o [7]
mmap_resize             0x0001499d    0x96  Code  Lc  dlmalloc.o [7]
monitor_ignore          0x03401610     0x4  Data  Lc  smart_config.o [7]
monitor_mode_enabled    0x03401771     0x1  Data  Gb  wwd_wifi.o [7]
mparams                 0x02017d4c    0x18  Data  Lc  dlmalloc.o [7]
mqttClientContext       0x0340126c    0x30  Data  Lc  FogCloudMQTTClient.o [4]
mqttClientThread        0x0003c96d   0x408  Code  Lc  FogCloudMQTTClient.o [4]
mqttClientThreadHandle  0x034012ac     0x4  Data  Gb  FogCloudMQTTClient.o [4]
ms_to_tick_ratio        0x034003fc     0x4  Data  Gb  wwd_rtos.o [7]
msg_recv_queue          0x02017e58     0x4  Data  Lc  MicoFogCloud.o [1]
msg_recv_queue_mutex    0x02017e60     0x4  Data  Lc  MicoFogCloud.o [1]
msleep                  0x0000ec1b     0xa  Code  Gb  mxchipWNET.o [7]
mtu_option_buff         0x000446d0     0x4  Data  Lc  dhcp_server.o [7]
mtx                     0x02017a70    0x14  Data  Lc  xsyslock_mtx.o [5]
mxchipInit              0x0000e9f5    0x40  Code  Gb  mxchipWNET.o [7]
mxchip_easy_link_start  0x0000cff5     0xa  Code  Gb  smart_config.o [7]
mxchip_inited           0x0340152c     0x4  Data  Lc  mxchipWNET.o [7]
mxchip_mfg_test         0x0001e775   0x13c  Code  Gb  system_factory_test.o [1]
mxchip_thread_init      0x00011d49    0x6c  Code  Gb  wifimgr.o [7]
mxchip_timer_tick       0x00011ea9    0x9e  Code  Lc  wifimgr.o [7]
n                       0x0340129c    0x10  Data  Lc  FogCloudMQTTClient.o [4]
name_server_get         0x0001765d     0xe  Code  Gb  dns.o [7]
ndigs                   0x0002a0f0    0x28  Data  Lc  xstoul.o [5]
ndigs                   0x0003d520    0x28  Data  Lc  xstoull.o [5]
needs_update            0x03401758     0x1  Data  Lc  mico_system_power_daemon.o [1]
netbuf_alloc            0x00022f89    0x3c  Code  Gb  netbuf.o [7]
netbuf_delete           0x00022f63    0x26  Code  Gb  netbuf.o [7]
netbuf_first            0x00023011     0xa  Code  Gb  netbuf.o [7]
netbuf_free             0x00022fc5    0x1e  Code  Gb  netbuf.o [7]
netbuf_new              0x00022f41    0x22  Code  Gb  netbuf.o [7]
netbuf_next             0x00022fe3    0x2e  Code  Gb  netbuf.o [7]
netconn_accept          0x00022b3d    0xbe  Code  Gb  api_lib.o [7]
netconn_alloc           0x0002cb7d    0x90  Code  Gb  api_msg.o [7]
netconn_bind            0x00022a39    0x42  Code  Gb  api_lib.o [7]
netconn_connect         0x00022a7b    0x46  Code  Gb  api_lib.o [7]
netconn_delete          0x000229b9    0x28  Code  Gb  api_lib.o [7]
netconn_disconnect      0x00022ac1    0x3c  Code  Gb  api_lib.o [7]
netconn_drain           0x0002cc3b    0xba  Code  Lc  api_msg.o [7]
netconn_free            0x0002cc0d    0x2e  Code  Gb  api_msg.o [7]
netconn_getaddr         0x000229e1    0x58  Code  Gb  api_lib.o [7]
netconn_listen_with_backlog
                        0x00022afd    0x40  Code  Gb  api_lib.o [7]
netconn_new_with_proto_and_callback
                        0x00022955    0x64  Code  Gb  api_lib.o [7]
netconn_recv            0x00022d27    0xa6  Code  Gb  api_lib.o [7]
netconn_recv_data       0x00022bfb   0x114  Code  Lc  api_lib.o [7]
netconn_recv_tcp_pbuf   0x00022d0f    0x18  Code  Gb  api_lib.o [7]
netconn_recved          0x00022dcd    0x28  Code  Gb  api_lib.o [7]
netconn_send            0x00022df5    0x3c  Code  Gb  api_lib.o [7]
netconn_write           0x00022e31    0x56  Code  Gb  api_lib.o [7]
netconn_write_partyly   0x00022e87    0x84  Code  Gb  api_lib.o [7]
netif_add               0x00026af5    0x70  Code  Gb  netif.o [7]
netif_default           0x03401734     0x4  Data  Gb  netif.o [7]
netif_find              0x00026c11    0x40  Code  Gb  netif.o [7]
netif_init              0x00026ac3    0x32  Code  Gb  netif.o [7]
netif_list              0x03401730     0x4  Data  Gb  netif.o [7]
netif_loop_output       0x00026d3d    0x70  Code  Gb  netif.o [7]
netif_loopif_init       0x00026aad    0x16  Code  Lc  netif.o [7]
netif_poll              0x00026dad    0x58  Code  Gb  netif.o [7]
netif_remove            0x00026ba9    0x68  Code  Gb  netif.o [7]
netif_remove_pcbs       0x00026b85    0x24  Code  Lc  netif.o [7]
netif_set_addr          0x00026b65    0x20  Code  Gb  netif.o [7]
netif_set_default       0x00026cb9     0x6  Code  Gb  netif.o [7]
netif_set_down          0x00026d25    0x16  Code  Gb  netif.o [7]
netif_set_gw            0x00026c9d     0xe  Code  Gb  netif.o [7]
netif_set_ipaddr        0x00026c51    0x4c  Code  Gb  netif.o [7]
netif_set_netmask       0x00026cab     0xe  Code  Gb  netif.o [7]
netif_set_up            0x00026ce5    0x40  Code  Gb  netif.o [7]
netifapi_netif_common   0x00029adb    0x1c  Code  Gb  netifapi.o [7]
network_tcp_send_packet
                        0x000171a1    0x82  Code  Gb  tcpip.o [7]
next_timeout            0x03401724     0x4  Data  Lc  lwiptimers.o [7]
no_pmk_cache            0x03401578     0x4  Data  Lc  wifimgr.o [7]
obuf                    0x0340121c    0x50  Data  Lc  xfiles.o [5]
off_channel_results     0x03401664     0x4  Data  Lc  wifi.o [7]
onClearHTTPHeader       0x00034cb1    0x1a  Code  Lc  config_server.o [1]
onReceivedData          0x00034be5    0xc4  Code  Lc  config_server.o [1]
onReceivedDataCallbackDefault
                        0x0003b08d     0x6  Code  Gb  HTTPUtils.o [1]
ota_Command             0x000335a9     0x4  Code  Lc  mico_cli.o [1]
ota_crc                 0x02016f78     0x2  Data  Gb  fogCloud.o [1]
pCli                    0x03401084     0x4  Data  Lc  mico_cli.o [1]
pPrintffunc             0x034016f0     0x4  Data  Gb  mxchip_debug.o [7]
p_minus_buffer          0x0340160c     0x4  Data  Lc  smart_config.o [7]
p_result_head           0x03401558     0x4  Data  Lc  wifimgr.o [7]
p_scan_buff             0x034003d8     0x4  Data  Gb  wifimgr.o [7]
p_sem                   0x034015d8     0x4  Data  Lc  smart_config.o [7]
parse_ssid_ie           0x0000d969   0x1ce  Code  Lc  smart_config.o [7]
partShow_Command        0x0003352d    0x4e  Code  Lc  mico_cli.o [1]
pbuf_alloc              0x0001cd81   0x174  Code  Gb  pbuf.o [7]
pbuf_cat                0x0001d077    0x28  Code  Gb  pbuf.o [7]
pbuf_chain              0x0001d09f    0x12  Code  Gb  pbuf.o [7]
pbuf_clen               0x0001d04d    0x12  Code  Gb  pbuf.o [7]
pbuf_copy               0x0001d0b1    0xb4  Code  Gb  pbuf.o [7]
pbuf_copy_partial       0x0001d165    0x9c  Code  Gb  pbuf.o [7]
pbuf_free               0x0001cfd5    0x78  Code  Gb  pbuf.o [7]
pbuf_header             0x0001cf41    0x94  Code  Gb  pbuf.o [7]
pbuf_realloc            0x0001cef5    0x4c  Code  Gb  pbuf.o [7]
pbuf_ref                0x0001d05f    0x18  Code  Gb  pbuf.o [7]
pbuf_take               0x0001d201    0x6c  Code  Gb  pbuf.o [7]
pcb_new                 0x0002cab9    0xa4  Code  Lc  api_msg.o [7]
ping_Command            0x00012a89    0xde  Code  Gb  wifimgr.o [7]
ping_packet             0x02017bc0    0x28  Data  Lc  wiced_ping.o [7]
ping_prepare_echo       0x00022851    0x48  Code  Lc  wiced_ping.o [7]
ping_recv               0x000228e5    0x64  Code  Lc  wiced_ping.o [7]
ping_send               0x00022899    0x4c  Code  Lc  wiced_ping.o [7]
ping_seq_num            0x03401756     0x2  Data  Lc  wiced_ping.o [7]
ping_target_ip          0x02017d78    0x14  Data  Lc  mftest.o [7]
ping_timed_event        0x02017d34    0x18  Data  Gb  mftest.o [7]
ping_times              0x034015ac     0x4  Data  Lc  mftest.o [7]
pkt_buffer              0x03400970   0x100  Data  Lc  smart_config.o [7]
pkt_num                 0x034015d4     0x4  Data  Lc  smart_config.o [7]
pkt_state               0x03400a70   0x100  Data  Lc  smart_config.o [7]
pkt_tbl                 0x0340117c    0x50  Data  Lc  smart_config.o [7]
pkt_type                0x0000db41    0xa6  Code  Lc  smart_config.o [7]
platform_flash_drivers  0x02017d1c    0x18  Data  Gb  platform.o [1]
platform_flash_erase    0x0002c0c3   0x15e  Code  Gb  platform_flash.o [1]
platform_flash_init     0x0002c095    0x2e  Code  Gb  platform_flash.o [1]
platform_flash_peripherals
                        0x0004252c    0x18  Data  Gb  platform.o [1]
platform_flash_read     0x0002c26f    0x54  Code  Gb  platform_flash.o [1]
platform_flash_write    0x0002c221    0x4e  Code  Gb  platform_flash.o [1]
platform_get_wifi_image
                        0x00021bd3    0x36  Code  Gb  wlan_platform_common.o [1]
platform_get_wifi_image_size
                        0x00021b71    0x62  Code  Gb  wlan_platform_common.o [1]
platform_gpio_init      0x0002a199    0x9a  Code  Gb  platform_gpio.o [1]
platform_gpio_input_get
                        0x0002a2a3    0x1e  Code  Gb  platform_gpio.o [1]
platform_gpio_irq_disable
                        0x0002a40f    0x86  Code  Gb  platform_gpio.o [1]
platform_gpio_irq_enable
                        0x0002a2c1   0x14e  Code  Gb  platform_gpio.o [1]
platform_gpio_irq_manager_init
                        0x0002a495    0x1a  Code  Gb  platform_gpio.o [1]
platform_gpio_output_high
                        0x0002a233    0x20  Code  Gb  platform_gpio.o [1]
platform_gpio_output_low
                        0x0002a253    0x1c  Code  Gb  platform_gpio.o [1]
platform_gpio_output_trigger
                        0x0002a277    0x2c  Code  Gb  platform_gpio.o [1]
platform_gpio_pins      0x000424a0    0x38  Data  Gb  platform.o [1]
platform_i2c_peripherals
                        0x0340032c     0xc  Data  Gb  platform.o [1]
platform_init_peripheral_irq_priorities
                        0x00021309    0xa6  Code  Gb  platform.o [1]
platform_mcu_enter_standby
                        0x000221ed     0x2  Code  Gb  platform_mcu_powersave.o [1]
platform_mcu_powersave_disable
                        0x000221d5     0xe  Code  Gb  platform_mcu_powersave.o [1]
platform_mcu_powersave_enable
                        0x000221e3     0x4  Code  Gb  platform_mcu_powersave.o [1]
platform_mcu_powersave_exit_notify
                        0x000221e7     0x2  Code  Gb  platform_mcu_powersave.o [1]
platform_mcu_powersave_init
                        0x000221d1     0x4  Code  Gb  platform_mcu_powersave.o [1]
platform_mcu_reset      0x000210b9    0x18  Code  Gb  platform_init.o [1]
platform_power_down_hook
                        0x000221e9     0x4  Code  Gb  platform_mcu_powersave.o [1]
platform_rtc_init       0x0002abcd     0x2  Code  Gb  platform_rtc.o [1]
platform_spi_drivers    0x0340034c    0x10  Data  Gb  platform.o [1]
platform_spi_init       0x0002abd9   0x102  Code  Gb  platform_spi.o [1]
platform_spi_peripherals
                        0x00042518    0x14  Data  Gb  platform.o [1]
platform_spi_transfer   0x0002ad15   0x160  Code  Gb  platform_spi.o [1]
platform_uart_drivers   0x03400f5c    0x68  Data  Gb  platform.o [1]
platform_uart_get_length_in_buffer
                        0x0002a89d     0x6  Code  Gb  platform_uart.o [1]
platform_uart_init      0x0002a8a3    0x4e  Code  Gb  platform_uart.o [1]
platform_uart_peripherals
                        0x000424e8    0x30  Data  Gb  platform.o [1]
platform_uart_receive_bytes
                        0x0002aa57    0xac  Code  Gb  platform_uart.o [1]
platform_uart_transmit_bytes
                        0x0002a8f1   0x124  Code  Gb  platform_uart.o [1]
platform_uart_tx_dma_irq
                        0x0002abad    0x12  Code  Gb  platform_uart.o [1]
platform_watchdog_check_last_reset
                        0x0002c091     0x4  Code  Gb  platform_watchdog.o [1]
poll_tcp                0x0002c88b    0x62  Code  Lc  api_msg.o [7]
pows                    0x0003e5d0    0x48  Data  Lc  xdtento.o [6]
prefix_tbl              0x034014d4     0x8  Data  Lc  smart_config.o [7]
prefix_valid            0x03401600     0x4  Data  Lc  smart_config.o [7]
prefix_validate         0x0000d50d   0x152  Code  Lc  smart_config.o [7]
prepend_alloc           0x00014a89   0x3e6  Code  Lc  dlmalloc.o [7]
print_buffer            0x0000c6eb    0xa8  Code  Lc  smart_config.o [7]
printbuf_free           0x00036d9b    0x18  Code  Gb  printbuf.o [1]
printbuf_memappend      0x00036ca9    0x52  Code  Gb  printbuf.o [1]
printbuf_new            0x00036c7d    0x2c  Code  Gb  printbuf.o [1]
printbuf_reset          0x00036d91     0xa  Code  Gb  printbuf.o [1]
printf                  0x000263d5    0x24  Code  Gb  printf.o [5]
probe_req_filter        0x00044388     0xc  Data  Lc  smart_config.o [7]
probe_req_match         0x00013847     0x1  Data  Lc  smart_config.o [7]
probe_req_pattern       0x0004434c     0xc  Data  Lc  smart_config.o [7]
probe_rsp_filter        0x0004437c     0xc  Data  Lc  smart_config.o [7]
probe_rsp_match         0x00013846     0x1  Data  Lc  smart_config.o [7]
probe_rsp_pattern       0x00044340     0xc  Data  Lc  smart_config.o [7]
process_dns_questions   0x000354b1   0x2a8  Code  Gb  mico_mdns.o [1]
prvAddCurrentTaskToDelayedList
                        0x000141a1    0x3a  Code  Lc  tasks.o [7]
prvAllocateTCBAndStack  0x000141e1    0x46  Code  Lc  tasks.o [7]
prvCheckForValidListAndQueue
                        0x00022017    0x3a  Code  Lc  ostimers.o [7]
prvCheckTasksWaitingTermination
                        0x0001413d    0x58  Code  Lc  tasks.o [7]
prvCopyDataFromQueue    0x00021a01    0x2a  Code  Lc  queue.o [7]
prvCopyDataToQueue      0x00021997    0x6a  Code  Lc  queue.o [7]
prvDeleteTCB            0x000142c1    0x12  Code  Lc  tasks.o [7]
prvGetNextExpireTime    0x00021e83    0x28  Code  Lc  ostimers.o [7]
prvIdleTask             0x00013fdd    0xc2  Code  Lc  tasks.o [7]
prvInitialiseTCBVariables
                        0x000140b1    0x3a  Code  Lc  tasks.o [7]
prvInitialiseTaskLists  0x000140eb    0x48  Code  Lc  tasks.o [7]
prvInsertTimerInActiveList
                        0x00021ed7    0x3e  Code  Lc  ostimers.o [7]
prvIsQueueEmpty         0x00021a95    0x1c  Code  Lc  queue.o [7]
prvIsQueueFull          0x00021abf    0x1e  Code  Lc  queue.o [7]
prvListTaskWithinSingleList
                        0x00014227    0x82  Code  Lc  tasks.o [7]
prvProcessExpiredTimer  0x00021dd9    0x46  Code  Lc  ostimers.o [7]
prvProcessReceivedCommands
                        0x00021f15    0x98  Code  Lc  ostimers.o [7]
prvProcessTimerOrBlockTask
                        0x00021e35    0x4e  Code  Lc  ostimers.o [7]
prvSampleTimeNow        0x00021eab    0x2c  Code  Lc  ostimers.o [7]
prvSetupTimerInterrupt  0x00021cc3    0x1a  Code  Lc  port.o [7]
prvSwitchTimerLists     0x00021fad    0x6a  Code  Lc  ostimers.o [7]
prvTimerTask            0x00021e21    0x14  Code  Lc  ostimers.o [7]
prvUnlockQueue          0x00021a2b    0x6a  Code  Lc  queue.o [7]
psZCB_FindAttribute     0x0003155f    0x2c  Code  Gb  ZigBeeAttributeReport.o [1]
psZCB_FindNodeControlBridge
                        0x00031aa9    0x12  Code  Gb  ZigBeeNetwork.o [1]
psZCB_FindNodeIEEEAddress
                        0x00031955    0xb2  Code  Gb  ZigBeeNetwork.o [1]
psZCB_FindNodeShortAddress
                        0x00031a07    0xa2  Code  Gb  ZigBeeNetwork.o [1]
psZCB_NodeFindEndpoint  0x00031cb9    0x40  Code  Gb  ZigBeeNetwork.o [1]
psZCB_NodeFindEndpointID
                        0x00031cf9    0x26  Code  Gb  ZigBeeNetwork.o [1]
ps_enable               0x0000ec25    0x12  Code  Gb  mxchipWNET.o [7]
ps_enabled              0x03401524     0x4  Data  Lc  mxchipWNET.o [7]
putchar                 0x00043c45     0xc  Code  Gb  putchar.o [5]
pvPortMalloc            0x000221ef    0x20  Code  Gb  heap_3.o [7]
pvTimerGetTimerID       0x0002206d     0x4  Code  Gb  ostimers.o [7]
pxCurrentTCB            0x034016b8     0x4  Data  Gb  tasks.o [7]
pxCurrentTimerList      0x034016a8     0x4  Data  Lc  ostimers.o [7]
pxDelayedTaskList       0x034016bc     0x4  Data  Lc  tasks.o [7]
pxOverflowDelayedTaskList
                        0x034016c0     0x4  Data  Lc  tasks.o [7]
pxOverflowTimerList     0x034016ac     0x4  Data  Lc  ostimers.o [7]
pxPortInitialiseStack   0x00021c15    0x22  Code  Gb  port.o [7]
pxReadyTasksLists       0x03400b70    0xc8  Data  Lc  tasks.o [7]
raddr                   0x034003f0     0x4  Data  Lc  mftest.o [7]
rand                    0x00024419    0xe0  Code  Gb  rand.o [5]
raw_bind                0x000267eb    0x10  Code  Gb  raw.o [7]
raw_connect             0x000267fb    0x10  Code  Gb  raw.o [7]
raw_input               0x0002675d    0x8e  Code  Gb  raw.o [7]
raw_new                 0x000268ef    0x2e  Code  Gb  raw.o [7]
raw_pcbs                0x03401738     0x4  Data  Lc  raw.o [7]
raw_recv                0x0002680b     0x6  Code  Gb  raw.o [7]
raw_remove              0x000268b3    0x3c  Code  Gb  raw.o [7]
raw_send                0x000268a9     0xa  Code  Gb  raw.o [7]
raw_sendto              0x00026811    0x98  Code  Gb  raw.o [7]
rcon                    0x00043350    0x28  Data  Lc  aes.o [7]
read                    0x0000efc7     0xa  Code  Gb  mxchipWNET.o [7]
readChar                0x0003e8f3     0x6  Code  Gb  MQTTPacket.o [4]
readInt                 0x0003e8e5     0xe  Code  Gb  MQTTPacket.o [4]
readMQTTLenString       0x0003e9af    0x32  Code  Gb  MQTTPacket.o [4]
readPacket              0x0003da63    0xb6  Code  Gb  MQTTClient.o [4]
reboot                  0x0003377d     0x4  Code  Lc  mico_cli.o [1]
received_byte_count     0x034015e8     0x4  Data  Lc  smart_config.o [7]
received_packet         0x03401620     0x4  Data  Lc  wps_host.o [7]
recv                    0x0000ef73    0x16  Code  Gb  mxchipWNET.o [7]
recv_buff_parser        0x0002f623    0xf2  Code  Gb  user_uart.o [1]
recv_data               0x03401684     0x4  Data  Lc  tcp_in.o [7]
recv_flags              0x03401775     0x1  Data  Lc  tcp_in.o [7]
recv_raw                0x0002c6d9    0xa4  Code  Lc  api_msg.o [7]
recv_tcp                0x0002c7ff    0x8c  Code  Lc  api_msg.o [7]
recv_udp                0x0002c77d    0x82  Code  Lc  api_msg.o [7]
recvfrom                0x0000ef89    0x3e  Code  Gb  mxchipWNET.o [7]
release_unused_segments
                        0x0001527b    0x28  Code  Lc  dlmalloc.o [7]
remote_ip               0x034014cc     0x8  Data  Lc  smart_config.o [7]
remove                  0x0003f273    0x16  Code  Gb  remove.o [9]
remove_bonjour_for_easylink
                        0x00034721     0x4  Code  Lc  system_easylink.o [1]
renew_tcp_port          0x000183f5     0xe  Code  Gb  tcp.o [7]
requested_ioctl_id      0x0340174c     0x2  Data  Lc  SDPCM.o [7]
reset_pkt_buffer        0x0000c109    0x2c  Code  Lc  smart_config.o [7]
reset_recv_state        0x0000c135    0xd6  Code  Lc  smart_config.o [7]
reset_without_dataclean
                        0x0000c243    0x5c  Code  Lc  smart_config.o [7]
result_buff             0x034013f4    0x3c  Data  Gb  wifimgr.o [7]
ring_buffer_consume     0x00029b47    0x14  Code  Gb  RingBufferUtils.o [1]
ring_buffer_get_data    0x00029b1f    0x28  Code  Gb  RingBufferUtils.o [1]
ring_buffer_init        0x00029afd     0xe  Code  Gb  RingBufferUtils.o [1]
ring_buffer_used_space  0x00029b0b     0x6  Code  Gb  RingBufferUtils.o [1]
ring_buffer_write       0x00029b5b    0x68  Code  Gb  RingBufferUtils.o [1]
rom_wrote_size          0x03400340     0x8  Data  Lc  FogCloudUtils.o [4]
rotlFixed               0x000384b1     0x8  Code  Lc  md5.o [7]
rotlFixed               0x000279b9     0x8  Code  Lc  aes.o [7]
rssi_2_quility          0x000109d5    0x24  Code  Lc  wifimgr.o [7]
rx_buffer               0x03400760    0x10  Data  Gb  user_uart.o [1]
rx_data                 0x03400770   0x100  Data  Gb  user_uart.o [1]
sFileInfo               0x03400e6c    0x80  Data  Lc  XShHandles.o [5]
sLock                   0x03401520     0x4  Data  Lc  ZigBeePDM.o [1]
sZCB_Attributes         0x034014a4     0x8  Data  Gb  ZigBeeAttributeReport.o [1]
sZCB_Network            0x02017ab8    0x30  Data  Gb  ZigBeeNetwork.o [1]
s_dbDMA                 0x02017b48    0x18  Data  Gb  wlan_bus_spi.o [1]
s_i2cCtxs               0x02017c9c    0x20  Data  Gb  platform_i2c.o [1]
s_intflash_offset       0x02017e74     0x4  Data  Lc  platform_flash.o [1]
s_irqAlc                0x0340112c    0x50  Data  Lc  platform_gpio.o [1]
s_isFifoInited          0x03401759     0x1  Data  Gb  platform_uart.o [1]
s_nvicIrqNdxTab         0x0002a524     0x8  Data  Gb  platform_gpio.o [1]
s_pSPIDrvs              0x0340150c     0x4  Data  Gb  platform_spi.o [1]
s_wpage_buff            0x03400870   0x100  Data  Lc  platform_flash.o [1]
sc_channel              0x034015d0     0x4  Data  Lc  smart_config.o [7]
sc_loop_num             0x034015e0     0x4  Data  Lc  smart_config.o [7]
sc_state                0x034015cc     0x4  Data  Lc  smart_config.o [7]
scan_adv_finished       0x000115d5    0x20  Code  Lc  wifimgr.o [7]
scan_bssid_list         0x0340166c     0x4  Data  Lc  wifi.o [7]
scan_end                0x034015a8     0x4  Data  Lc  mftest.o [7]
scan_events             0x00044618     0x8  Data  Lc  wwd_wifi.o [7]
scan_finished           0x00011531    0x20  Code  Lc  wifimgr.o [7]
scan_report             0x0000ed23     0x8  Code  Gb  mxchipWNET.o [7]
scan_result_ap_num      0x034015b0     0x4  Data  Lc  mftest.o [7]
scan_result_callback    0x03401650     0x4  Data  Lc  wwd_wifi.o [7]
scan_result_handler     0x00029bc7    0x62  Code  Lc  mftest.o [7]
scan_result_handler     0x0000f681   0x30e  Code  Lc  wwd_wifi.o [7]
scan_result_handler     0x00014591   0x244  Code  Lc  wifi.o [7]
scan_result_ptr         0x03401654     0x4  Data  Lc  wwd_wifi.o [7]
scan_result_ptr         0x03401668     0x4  Data  Lc  wifi.o [7]
scan_results_handler    0x00011aa1   0x110  Code  Lc  wifimgr.o [7]
scan_sem                0x03401568     0x4  Data  Lc  wifimgr.o [7]
scan_semaphore          0x03401660     0x4  Data  Lc  wifi.o [7]
sdio_irq_               0x034015bc     0x4  Data  Gb  wwd_thread.o [7]
sdpcm_enabled           0x03401764     0x1  Data  Lc  SDPCM.o [7]
sdpcm_highest_rx_tos    0x0340175f     0x1  Data  Lc  SDPCM.o [7]
sdpcm_line              0x034015a4     0x4  Data  Gb  SDPCM.o [7]
sdpcm_packet_transmit_sequence_number
                        0x0340175e     0x1  Data  Lc  SDPCM.o [7]
sectype_bcm2mx          0x000109f9    0x46  Code  Lc  wifimgr.o [7]
sectype_mx2bcm          0x00010a3f    0x42  Code  Lc  wifimgr.o [7]
seedNum                 0x03401504     0x4  Data  Lc  mico_system_para_storage.o [1]
segment_holding         0x00014831    0x1e  Code  Lc  dlmalloc.o [7]
select                  0x0000eedf    0x22  Code  Gb  mxchipWNET.o [7]
select_ap_to_join       0x0001163d   0x3dc  Code  Lc  wifimgr.o [7]
select_cb_ctr           0x03401544     0x4  Data  Lc  sockets.o [7]
select_cb_list          0x03401540     0x4  Data  Lc  sockets.o [7]
send                    0x0000ef01    0x16  Code  Gb  mxchipWNET.o [7]
sendNotifySYSWillPowerOff
                        0x0000f31d    0x16  Code  Gb  mico_system_notification.o [1]
sendPacket              0x0003d9e9    0x4a  Code  Gb  MQTTClient.o [4]
send_interface_mutex    0x03401714     0x4  Data  Gb  wiced_network.o [7]
send_ping               0x00029c53    0x52  Code  Lc  mftest.o [7]
sendto                  0x0000ef17    0x5c  Code  Gb  mxchipWNET.o [7]
sent_tcp                0x0002c8ed    0x62  Code  Lc  api_msg.o [7]
seqno                   0x0340167c     0x4  Data  Lc  tcp_in.o [7]
set_RF_LED_cloud_connected
                        0x00032b7d     0x6  Code  Gb  MICOConfigDelegate.o [1]
set_RF_LED_cloud_disconnected
                        0x00032b83     0xa  Code  Gb  MICOConfigDelegate.o [1]
set_conncetion_status   0x0000e9f3     0x2  Code  Gb  mxchipWNET.o [7]
set_sta_connection      0x00010c9d    0x90  Code  Lc  wifimgr.o [7]
set_sta_retry_interval  0x00010d6d     0xe  Code  Gb  wifimgr.o [7]
set_static_ip           0x00010e1d    0x72  Code  Lc  wifimgr.o [7]
set_uap_connection      0x00010d43    0x2a  Code  Lc  wifimgr.o [7]
setsockopt              0x0000ed6f    0x86  Code  Gb  mxchipWNET.o [7]
setup_tcp               0x0002ca07    0x38  Code  Lc  api_msg.o [7]
sflash_handle           0x02017e78     0xc  Data  Lc  platform_flash.o [1]
sflash_platform_init    0x0003bbc5    0x18  Code  Gb  spi_flash_platform.o [1]
sflash_platform_send_recv
                        0x0003bbdd    0x12  Code  Gb  spi_flash_platform.o [1]
sflash_read             0x0003633f    0x2a  Code  Gb  spi_flash.o [1]
sflash_sector_erase     0x00036305    0x3a  Code  Gb  spi_flash.o [1]
sflash_write            0x00036435    0x9e  Code  Gb  spi_flash.o [1]
sflash_write_enable     0x0003627d    0x86  Code  Gb  spi_flash.o [1]
sflash_write_page       0x00036369    0xc6  Code  Gb  spi_flash.o [1]
sleep                   0x0000ec0b    0x10  Code  Gb  mxchipWNET.o [7]
smart_config_done       0x0000eca1    0x42  Code  Gb  mxchipWNET.o [7]
sniffer_callback        0x034015c8     0x4  Data  Lc  smart_config.o [7]
snprintf                0x0000f4b5    0x44  Code  Gb  snprintf.o [5]
socket                  0x0000ed67     0x8  Code  Gb  mxchipWNET.o [7]
socket_connected        0x0000f2e5    0x1a  Code  Gb  mico_system_notification.o [1]
socket_for_ping         0x0340172c     0x4  Data  Gb  wiced_ping.o [7]
socket_show             0x0001a7d9   0x108  Code  Gb  sockets.o [7]
socket_show_Command     0x00012cc5    0x40  Code  Gb  wifimgr.o [7]
socket_state            0x0001a7af    0x2a  Code  Lc  sockets.o [7]
sockets                 0x02017768   0x180  Data  Lc  sockets.o [7]
softap_channel          0x034003e4     0x4  Data  Lc  wifimgr.o [7]
source                  0x03401481     0x1  Data  Lc  system_easylink.o [1]
spi_irq_handler         0x00024d01     0xe  Code  Gb  wlan_bus_spi.o [1]
spi_transfer_finished_semaphore
                        0x02017b6c     0x4  Data  Lc  wlan_bus_spi.o [1]
sprintbuf               0x00036cfb    0x92  Code  Gb  printbuf.o [1]
sprintf                 0x00016f35    0x34  Code  Gb  sprintf.o [5]
srand                   0x00017ead    0x20  Code  Gb  srand.o [5]
sscanf                  0x000373b9    0x24  Code  Gb  sscanf.o [5]
ssid_get                0x0001e633   0x142  Code  Lc  system_factory_test.o [1]
sta_connect_with_apinfo
                        0x00010e8f   0x18e  Code  Lc  wifimgr.o [7]
sta_connected           0x0340175b     0x1  Data  Lc  wifimgr.o [7]
sta_dhcp_mode           0x0340155c     0x4  Data  Lc  wifimgr.o [7]
sta_down                0x00010d87    0x18  Code  Gb  wifimgr.o [7]
sta_ip_settings         0x020178e8    0x3c  Data  Lc  wifimgr.o [7]
sta_link_events_handler
                        0x00011cab    0x80  Code  Lc  wifimgr.o [7]
sta_link_up             0x00010d85     0x2  Code  Lc  wifimgr.o [7]
sta_retry_interval      0x034003d4     0x4  Data  Lc  wifimgr.o [7]
sta_state               0x0340175d     0x1  Data  Lc  wifimgr.o [7]
sta_up                  0x00010d7b     0xa  Code  Gb  wifimgr.o [7]
start_bonjour_service   0x00035fb5    0xbc  Code  Lc  mico_mdns.o [1]
start_scan              0x00011be5    0xbe  Code  Lc  wifimgr.o [7]
station_dhcp_mode       0x0001222d     0x8  Code  Gb  wifimgr.o [7]
station_up              0x0000eaeb    0xac  Code  Gb  mxchipWNET.o [7]
stdio_hardfault         0x000211a7    0x20  Code  Gb  platform_init.o [1]
stdio_rx_buffer         0x03400194    0x10  Data  Lc  platform_init.o [1]
stdio_rx_data           0x034001a4    0x40  Data  Lc  platform_init.o [1]
stdio_rx_mutex          0x034001e4     0x4  Data  Gb  platform_init.o [1]
stdio_tx_mutex          0x034001e8     0x4  Data  Gb  platform_init.o [1]
stdio_uart_config       0x000211ec     0xc  Data  Lc  platform_init.o [1]
stopscan                0x00010d2d     0xe  Code  Lc  wifimgr.o [7]
str2hex                 0x0000f11d    0x8a  Code  Gb  mxchipWNET.o [7]
strcasecmp              0x0001f3c9    0x46  Code  Gb  strcasecmp.o [5]
strcat                  0x000221b5    0x1c  Code  Gb  strcat.o [5]
strchr                  0x00025a19          Code  Gb  strchr.o [8]
strdup                  0x00037101    0x18  Code  Gb  strdup.o [5]
strlen                  0x00013041          Code  Gb  strlen.o [8]
strncasecmp             0x0003736b    0x4e  Code  Gb  strncasecmp.o [5]
strncat                 0x0003d10d    0x28  Code  Gb  strncat.o [5]
strncmp                 0x0001e5f1    0x2a  Code  Gb  strncmp.o [5]
strnicmp                0x00027329    0x38  Code  Gb  StringUtils.o [1]
strnicmp_suffix         0x00027967    0x2a  Code  Gb  StringUtils.o [1]
strnicmpx               0x00027361    0x3a  Code  Gb  StringUtils.o [1]
strnlen                 0x0002decb    0x16  Code  Gb  strnlen.o [5]
strtoul                 0x000210b5     0x4  Code  Gb  strtoul.o [5]
switch_channle          0x0000c57d   0x152  Code  Lc  smart_config.o [7]
sys_alloc               0x000150ad   0x1ce  Code  Lc  dlmalloc.o [7]
sys_arch_mbox_fetch     0x0002454f    0xa0  Code  Gb  sys_arch.o [7]
sys_arch_mbox_tryfetch  0x0002472f    0x20  Code  Gb  sys_arch.o [7]
sys_arch_protect        0x0002471d     0xa  Code  Gb  sys_arch.o [7]
sys_arch_sem_wait       0x0002464f    0x78  Code  Gb  sys_arch.o [7]
sys_arch_unprotect      0x00024727     0x8  Code  Gb  sys_arch.o [7]
sys_gpio_pins           0x000424d8    0x10  Data  Gb  platform.o [1]
sys_init                0x000246e7     0x2  Code  Gb  sys_arch.o [7]
sys_mbox_free           0x00024515    0x18  Code  Gb  sys_arch.o [7]
sys_mbox_new            0x00024501    0x14  Code  Gb  sys_arch.o [7]
sys_mbox_post           0x0002452d    0x22  Code  Gb  sys_arch.o [7]
sys_mbox_set_invalid    0x0002478d     0x6  Code  Gb  sys_arch.o [7]
sys_mbox_trypost        0x0002474f    0x1e  Code  Gb  sys_arch.o [7]
sys_mbox_valid          0x0002476d    0x10  Code  Gb  sys_arch.o [7]
sys_msleep              0x0002943d    0x28  Code  Gb  sys.o [7]
sys_now                 0x000244f9     0x8  Code  Gb  sys_arch.o [7]
sys_sem_free            0x000246dd     0xa  Code  Gb  sys_arch.o [7]
sys_sem_new             0x000245ef    0x60  Code  Gb  sys_arch.o [7]
sys_sem_set_invalid     0x00024793     0x6  Code  Gb  sys_arch.o [7]
sys_sem_signal          0x000246cd    0x10  Code  Gb  sys_arch.o [7]
sys_sem_valid           0x0002477d    0x10  Code  Gb  sys_arch.o [7]
sys_thread_new          0x000246e9    0x34  Code  Gb  sys_arch.o [7]
sys_timeout             0x000240d3    0x8c  Code  Gb  lwiptimers.o [7]
sys_timeouts_init       0x00024095    0x3e  Code  Gb  lwiptimers.o [7]
sys_timeouts_mbox_fetch
                        0x000241b7    0x82  Code  Gb  lwiptimers.o [7]
sys_timeouts_resume     0x0002404d    0x48  Code  Gb  lwiptimers.o [7]
sys_timeouts_suspend    0x00024019    0x34  Code  Gb  lwiptimers.o [7]
sys_trim                0x000152a3    0x98  Code  Lc  dlmalloc.o [7]
sys_untimeout           0x0002415f    0x58  Code  Gb  lwiptimers.o [7]
syslock_o               0x02017a4c     0x4  Data  Lc  xsyslock_mtx.o [5]
system_connect_wifi_fast
                        0x0001d959    0xa2  Code  Gb  system_misc.o [1]
system_connect_wifi_normal
                        0x0001d8d1    0x88  Code  Gb  system_misc.o [1]
system_debug_enable     0x0001cd6d    0x14  Code  Gb  mxchip_debug.o [7]
system_easylink_start   0x00034049    0x44  Code  Gb  system_easylink.o [1]
system_lib_version      0x0000e9ed     0x6  Code  Gb  mxchipWNET.o [7]
system_network_daemen_start
                        0x0001d9fb    0x4e  Code  Gb  system_misc.o [1]
system_notification_init
                        0x0001d869    0x50  Code  Gb  system_misc.o [1]
system_version          0x0001d721    0x20  Code  Gb  system_misc.o [1]
tab_complete            0x0003321d    0xb0  Code  Lc  mico_cli.o [1]
task_Command            0x00012c59    0x66  Code  Gb  wifimgr.o [7]
tcp_abandon             0x00018115    0x9e  Code  Gb  tcp.o [7]
tcp_abort               0x000181b3     0xa  Code  Gb  tcp.o [7]
tcp_accept              0x00018b25     0x4  Code  Gb  tcp.o [7]
tcp_accept_null         0x0001825d     0x6  Code  Lc  tcp.o [7]
tcp_active_pcbs         0x03401638     0x4  Data  Gb  tcp.o [7]
tcp_alloc               0x00018a0f    0xe8  Code  Gb  tcp.o [7]
tcp_arg                 0x00018b0f     0x4  Code  Gb  tcp.o [7]
tcp_backoff             0x00044160    0x10  Data  Gb  tcp.o [7]
tcp_bind                0x000181bd    0xa0  Code  Gb  tcp.o [7]
tcp_bound_pcbs          0x03401630     0x4  Data  Gb  tcp.o [7]
tcp_close               0x000180a9    0x1c  Code  Gb  tcp.o [7]
tcp_close_shutdown      0x00017ef1   0x1b8  Code  Lc  tcp.o [7]
tcp_connect             0x00018477   0x174  Code  Gb  tcp.o [7]
tcp_create_segment      0x00023357    0xb8  Code  Lc  tcp_out.o [7]
tcp_dump                0x000207c5   0x194  Code  Gb  tcp_in.o [7]
tcp_eff_send_mss        0x00018c6d    0x28  Code  Gb  tcp.o [7]
tcp_enqueue_flags       0x0002388b   0x106  Code  Gb  tcp_out.o [7]
tcp_err                 0x00018b1f     0x6  Code  Gb  tcp.o [7]
tcp_fasttmr             0x000188b9    0x7e  Code  Gb  tcp.o [7]
tcp_input               0x0001f411   0x4ec  Code  Gb  tcp_in.o [7]
tcp_input_cb            0x0000f215     0x2  Code  Wk  mxchipWNET.o [7]
tcp_input_pcb           0x03401688     0x4  Data  Gb  tcp_in.o [7]
tcp_keepalive           0x00023e67    0x4e  Code  Gb  tcp_out.o [7]
tcp_kill_older          0x0001f8fd    0x5e  Code  Lc  tcp_in.o [7]
tcp_kill_prio           0x0001898d    0x4c  Code  Lc  tcp.o [7]
tcp_kill_timewait       0x000189d9    0x36  Code  Lc  tcp.o [7]
tcp_listen_input        0x0001f95b   0x154  Code  Lc  tcp_in.o [7]
tcp_listen_pcbs         0x03401634     0x4  Data  Gb  tcp.o [7]
tcp_listen_with_backlog
                        0x00018263   0x112  Code  Gb  tcp.o [7]
tcp_new                 0x00018b05     0xa  Code  Gb  tcp.o [7]
tcp_new_port            0x00018403    0x74  Code  Lc  tcp.o [7]
tcp_next_iss            0x00018c59    0x14  Code  Gb  tcp.o [7]
tcp_next_port           0x0340174e     0x2  Data  Lc  tcp.o [7]
tcp_output              0x000239f7   0x20a  Code  Gb  tcp_out.o [7]
tcp_output_alloc_header
                        0x0002329d    0x78  Code  Lc  tcp_out.o [7]
tcp_output_segment      0x00023c01    0xd8  Code  Lc  tcp_out.o [7]
tcp_parseopt            0x00020705    0xb4  Code  Lc  tcp_in.o [7]
tcp_pbuf_prealloc       0x0002340f    0x2c  Code  Lc  tcp_out.o [7]
tcp_pcb_lists           0x03400378    0x10  Data  Gb  tcp.o [7]
tcp_pcb_purge           0x00018b33    0xa6  Code  Gb  tcp.o [7]
tcp_pcb_remove          0x00018be1    0x78  Code  Gb  tcp.o [7]
tcp_persist_backoff     0x000445f0     0x8  Data  Gb  tcp.o [7]
tcp_poll                0x00018b29     0xa  Code  Gb  tcp.o [7]
tcp_process             0x0001fb57   0x512  Code  Lc  tcp_in.o [7]
tcp_receive             0x000200a9   0x658  Code  Lc  tcp_in.o [7]
tcp_recv                0x00018b13     0x6  Code  Gb  tcp.o [7]
tcp_recv_null           0x00018967    0x26  Code  Gb  tcp.o [7]
tcp_recved              0x000183bd    0x38  Code  Gb  tcp.o [7]
tcp_rexmit              0x00023da1    0x4e  Code  Gb  tcp_out.o [7]
tcp_rexmit_fast         0x00023def    0x78  Code  Gb  tcp_out.o [7]
tcp_rexmit_rto          0x00023d6d    0x34  Code  Gb  tcp_out.o [7]
tcp_rst                 0x00023ce5    0x88  Code  Gb  tcp_out.o [7]
tcp_seg_free            0x00018949    0x1e  Code  Gb  tcp.o [7]
tcp_segs_free           0x00018937    0x12  Code  Gb  tcp.o [7]
tcp_send_empty_ack      0x00023991    0x66  Code  Gb  tcp_out.o [7]
tcp_send_fin            0x00023315    0x42  Code  Gb  tcp_out.o [7]
tcp_sent                0x00018b19     0x6  Code  Gb  tcp.o [7]
tcp_shutdown            0x000180c5    0x50  Code  Gb  tcp.o [7]
tcp_slowtmr             0x000185eb   0x2ce  Code  Gb  tcp.o [7]
tcp_socket              0x02017b18    0x30  Data  Lc  mftest.o [7]
tcp_ticks               0x0340162c     0x4  Data  Gb  tcp.o [7]
tcp_timer               0x03401770     0x1  Data  Lc  tcp.o [7]
tcp_timer_needed        0x00023f8b    0x2c  Code  Gb  lwiptimers.o [7]
tcp_timewait_input      0x0001faaf    0xa8  Code  Lc  tcp_in.o [7]
tcp_tmp_pcb             0x03401648     0x4  Data  Gb  tcp.o [7]
tcp_tmr                 0x00017ecd    0x24  Code  Gb  tcp.o [7]
tcp_tw_pcbs             0x0340163c     0x4  Data  Gb  tcp.o [7]
tcp_update_rcv_ann_wnd  0x00018375    0x48  Code  Gb  tcp.o [7]
tcp_write               0x000234b1   0x3da  Code  Gb  tcp_out.o [7]
tcp_write_checks        0x0002343b    0x76  Code  Lc  tcp_out.o [7]
tcp_zero_window_probe   0x00023eb5    0xaa  Code  Gb  tcp_out.o [7]
tcphdr                  0x03401674     0x4  Data  Lc  tcp_in.o [7]
tcpip_apimsg            0x000231c1    0x44  Code  Gb  lwiptcpip.o [7]
tcpip_callback_with_block
                        0x00023163    0x5e  Code  Gb  lwiptcpip.o [7]
tcpip_init              0x00023255    0x2e  Code  Gb  lwiptcpip.o [7]
tcpip_init_done         0x0340169c     0x4  Data  Lc  lwiptcpip.o [7]
tcpip_init_done         0x0001dbad    0x10  Code  Lc  wiced_network.o [7]
tcpip_init_done_arg     0x034016a0     0x4  Data  Lc  lwiptcpip.o [7]
tcpip_input             0x00023115    0x4e  Code  Gb  lwiptcpip.o [7]
tcpip_netifapi          0x00023205    0x50  Code  Gb  lwiptcpip.o [7]
tcpip_tcp_timer         0x00023f61    0x2a  Code  Lc  lwiptimers.o [7]
tcpip_tcp_timer_active  0x03401728     0x4  Data  Lc  lwiptimers.o [7]
tcpip_thread            0x0002301d    0xf8  Code  Lc  lwiptcpip.o [7]
tcplen                  0x03401750     0x2  Data  Lc  tcp_in.o [7]
tftp_Command            0x00033429    0xfe  Code  Lc  mico_cli.o [1]
tftp_ota                0x0003ad6d   0x1e6  Code  Gb  tftp_ota.o [1]
tget                    0x0003a9b7   0x1d2  Code  Gb  tftpc.o [2]
thread_created          0x034015e4     0x4  Data  Lc  smart_config.o [7]
thread_wakeup           0x0002ab6d    0x2a  Code  Lc  platform_uart.o [1]
timed_event_handler     0x00013495    0x1a  Code  Lc  wiced_rtos.o [7]
timer_callback          0x00013307    0x16  Code  Lc  wiced_rtos.o [7]
timer_head              0x03401554     0x4  Data  Gb  wifimgr.o [7]
timer_sem               0x03401560     0x4  Data  Lc  wifimgr.o [7]
timer_thread_func       0x00011d2b    0x16  Code  Lc  wifimgr.o [7]
timer_thread_wait       0x034003dc     0x4  Data  Lc  wifimgr.o [7]
tmalloc_large           0x000158cd   0x41a  Code  Lc  dlmalloc.o [7]
tmalloc_small           0x00015ce7   0x26c  Code  Lc  dlmalloc.o [7]
tods_bcast_mask         0x00043bfc    0x18  Data  Lc  smart_config.o [7]
tods_bcast_match        0x00043c14    0x18  Data  Lc  smart_config.o [7]
tods_brast_pattern      0x0004431c     0xc  Data  Lc  smart_config.o [7]
tods_filter             0x00044358     0xc  Data  Lc  smart_config.o [7]
tolower                 0x00029f6d    0x14  Code  Gb  tolower.o [5]
total_data_len          0x03401604     0x4  Data  Lc  smart_config.o [7]
total_data_validate     0x0000d671    0xba  Code  Lc  smart_config.o [7]
total_recv_buf_len      0x02017e5c     0x4  Data  Lc  MicoFogCloud.o [1]
toupper                 0x0002de77    0x18  Code  Gb  toupper.o [5]
tpsk                    0x034013b4    0x40  Data  Lc  smart_config.o [7]
try_realloc_chunk       0x00016975   0x3a8  Code  Lc  dlmalloc.o [7]
tryget_socket           0x00018f93    0x2a  Code  Lc  sockets.o [7]
tsend                   0x0003a665   0x34a  Code  Gb  tftpc.o [2]
tssid                   0x02017cbc    0x20  Data  Lc  smart_config.o [7]
tx_count                0x034015b4     0x4  Data  Lc  mftest.o [7]
tx_tcp_packet           0x00029d15    0x68  Code  Lc  mftest.o [7]
tx_udp_packet           0x00029ca5    0x70  Code  Lc  mftest.o [7]
type_subtype_mask       0x00013076     0x1  Data  Lc  smart_config.o [7]
u16PanIDInUse           0x03401442     0x2  Data  Gb  ZigBeeControlBridge.o [1]
u32ZCB_CurrentWaitSeq   0x03400394     0x4  Data  Gb  ZigBeeControlBridge.o [1]
u32ZCB_SoftwareVersion  0x0340151c     0x4  Data  Gb  ZigBeeControlBridge.o [1]
u64PanID                0x03400370     0x8  Data  Gb  ZigBeeControlBridge.o [1]
u64PanIDInUse           0x03401448     0x8  Data  Gb  ZigBeeControlBridge.o [1]
u8SL_CalculateCRC       0x00036a4d    0x1c  Code  Lc  ZigBeeSerialLink.o [1]
uap_connected           0x0340175c     0x1  Data  Lc  wifimgr.o [7]
uap_down                0x00010df7    0x20  Code  Lc  wifimgr.o [7]
uap_ip_settings         0x02017924    0x3c  Data  Lc  wifimgr.o [7]
uap_stop                0x0001131f    0x18  Code  Gb  wifimgr.o [7]
uartRecv_thread         0x0002f715   0x112  Code  Gb  user_uart.o [1]
udp_bind                0x00020e7f    0xaa  Code  Gb  udp.o [7]
udp_connect             0x00020f31    0x5a  Code  Gb  udp.o [7]
udp_disconnect          0x00020f91    0x12  Code  Gb  udp.o [7]
udp_dump                0x00021005    0x98  Code  Gb  udp.o [7]
udp_input               0x000209a5   0x25c  Code  Gb  udp.o [7]
udp_new                 0x00020fe5    0x20  Code  Gb  udp.o [7]
udp_pcbs                0x03401710     0x4  Data  Gb  udp.o [7]
udp_recv                0x00020fa3     0x6  Code  Gb  udp.o [7]
udp_remove              0x00020fa9    0x3c  Code  Gb  udp.o [7]
udp_send                0x00020c01     0xc  Code  Gb  udp.o [7]
udp_send_message        0x00010a8b    0x8a  Code  Gb  wifimgr.o [7]
udp_sendto              0x00020c0d   0x14c  Code  Gb  udp.o [7]
udp_sendto_if           0x00020d59   0x126  Code  Gb  udp.o [7]
udp_socket              0x02017ae8    0x30  Data  Lc  mftest.o [7]
update_arp_entry        0x0001ec5f    0xc2  Code  Lc  etharp.o [7]
update_bus_credit_time  0x00012091    0x28  Code  Gb  wifimgr.o [7]
update_rx_time          0x0000ec37     0x2  Code  Gb  mxchipWNET.o [7]
update_state_fd         0x034002fc     0x4  Data  Lc  mico_mdns.o [1]
update_state_sem        0x034002f8     0x4  Data  Lc  mico_mdns.o [1]
upload_info             0x00010b15   0x188  Code  Lc  wifimgr.o [7]
uptime_Command          0x0003357b    0x2e  Code  Lc  mico_cli.o [1]
usTaskCheckFreeStackSpace
                        0x000142a9    0x18  Code  Lc  tasks.o [7]
use_5g_join_param       0x0340164c     0x4  Data  Lc  wwd_wifi.o [7]
user_main               0x0002b141   0x2f6  Code  Gb  user_main.o [1]
user_main_thread        0x000214ef    0x1a  Code  Gb  MICOAppEntrance.o [1]
user_req_scan           0x0340156c     0x4  Data  Lc  wifimgr.o [7]
user_stop_sta           0x03401570     0x4  Data  Lc  wifimgr.o [7]
user_uartInit           0x0002f5b1    0x72  Code  Gb  user_uart.o [1]
utf8_replacement_char   0x034003a0     0x4  Data  Lc  json_tokener.o [1]
utoa                    0x0002df25    0x88  Code  Gb  wiced_lib.o [7]
uxCriticalNesting       0x034003ec     0x4  Data  Lc  port.o [7]
uxCurrentNumberOfTasks  0x034016c8     0x4  Data  Lc  tasks.o [7]
uxMissedTicks           0x034016e0     0x4  Data  Lc  tasks.o [7]
uxQueueMessagesWaiting  0x00021973    0x12  Code  Gb  queue.o [7]
uxSchedulerSuspended    0x034016dc     0x4  Data  Lc  tasks.o [7]
uxTCBNumber             0x034016ec     0x4  Data  Lc  tasks.o [7]
uxTasksDeleted          0x034016c4     0x4  Data  Lc  tasks.o [7]
uxTopReadyPriority      0x034016d4     0x4  Data  Lc  tasks.o [7]
uxTopUsedPriority       0x034016d0     0x4  Data  Lc  tasks.o [7]
vApplicationMallocFailedHook
                        0x00017ea5     0x2  Code  Gb  wwd_rtos.o [7]
vApplicationStackOverflowHook
                        0x00017e9b     0xa  Code  Gb  wwd_rtos.o [7]
vListInitialise         0x00022071    0x1e  Code  Gb  list.o [7]
vListInitialiseItem     0x0002208f     0x6  Code  Gb  list.o [7]
vListInsert             0x000220b1    0x36  Code  Gb  list.o [7]
vListInsertEnd          0x00022095    0x1c  Code  Gb  list.o [7]
vListRemove             0x000220e7    0x24  Code  Gb  list.o [7]
vPortClearInterruptMask
                        0x00022167          Code  Gb  portasm.o [7]
vPortEnableVFP          0x00022197          Code  Gb  portasm.o [7]
vPortEnterCritical      0x00021c7d    0x12  Code  Gb  port.o [7]
vPortExitCritical       0x00021c8f    0x1a  Code  Gb  port.o [7]
vPortFree               0x0002220f    0x18  Code  Gb  heap_3.o [7]
vPortSVCHandler         0x00022171          Code  Gb  portasm.o [7]
vPortSetInterruptMask   0x0002215d          Code  Gb  portasm.o [7]
vPortStartFirstTask     0x00022189          Code  Gb  portasm.o [7]
vPortYieldFromISR       0x00021c73     0xa  Code  Gb  port.o [7]
vQueueDelete            0x00021985    0x12  Code  Gb  queue.o [7]
vQueueWaitForMessageRestricted
                        0x00021aed    0x3e  Code  Gb  queue.o [7]
vSetMSP                 0x0002210d          Code  Gb  portasm.o [7]
vTaskDelay              0x000139ed    0x36  Code  Gb  tasks.o [7]
vTaskDelete             0x00013979    0x74  Code  Gb  tasks.o [7]
vTaskForceAwake         0x00013a9b    0x4c  Code  Gb  tasks.o [7]
vTaskIncrementTick      0x00013cff   0x106  Code  Gb  tasks.o [7]
vTaskList               0x00013c55    0xaa  Code  Gb  tasks.o [7]
vTaskMissedYield        0x00013fd3     0xa  Code  Gb  tasks.o [7]
vTaskPlaceOnEventList   0x00013e9d    0x3a  Code  Gb  tasks.o [7]
vTaskPlaceOnEventListRestricted
                        0x00013ed7    0x24  Code  Gb  tasks.o [7]
vTaskPriorityDisinherit
                        0x00014361    0x44  Code  Gb  tasks.o [7]
vTaskPriorityInherit    0x000142f5    0x66  Code  Gb  tasks.o [7]
vTaskSetTimeOutState    0x00013f63    0x10  Code  Gb  tasks.o [7]
vTaskStartScheduler     0x00013afd    0x4c  Code  Gb  tasks.o [7]
vTaskSuspendAll         0x00013b49    0x10  Code  Gb  tasks.o [7]
vTaskSwitchContext      0x00013e05    0x98  Code  Gb  tasks.o [7]
vZCB_NodeUpdateComms    0x00031d1f     0x2  Code  Gb  ZigBeeNetwork.o [1]
vZCB_ReportNodes1       0x0002b437   0x13c  Code  Gb  user_main.o [1]
vZCB_SendZoneStatusChangeNotify
                        0x0002b585    0xa2  Code  Gb  user_main.o [1]
valid_dir               0x034015fc     0x4  Data  Lc  smart_config.o [7]
valid_ssid              0x0340041c     0x1  Data  Lc  smart_config.o [7]
vprintf                 0x0003bc21    0x18  Code  Gb  vprintf.o [5]
vsnprintf               0x0003b04d    0x3c  Code  Gb  vsnprint.o [5]
vsprintf                0x0003bbf5    0x2c  Code  Gb  vsprintf.o [5]
wiced_bus_allow_wlan_bus_to_sleep
                        0x0002564d    0x10  Code  Gb  wwd_bus_protocol.o [7]
wiced_bus_deinit        0x00025499     0xc  Code  Gb  wwd_bus_protocol.o [7]
wiced_bus_ensure_wlan_bus_is_up
                        0x00025621    0x2c  Code  Gb  wwd_bus_protocol.o [7]
wiced_bus_flow_controlled
                        0x0340177b     0x1  Data  Lc  wwd_bus_protocol.o [7]
wiced_bus_init          0x000252ab   0x1ee  Code  Gb  wwd_bus_protocol.o [7]
wiced_bus_interrupt     0x03401767     0x1  Data  Lc  wwd_thread.o [7]
wiced_bus_is_flow_controlled
                        0x000251cf     0x8  Code  Gb  wwd_bus_protocol.o [7]
wiced_bus_poke_wlan     0x000251af     0x4  Code  Gb  wwd_bus_protocol.o [7]
wiced_bus_process_interrupt
                        0x000251d7    0x36  Code  Gb  wwd_bus_protocol.o [7]
wiced_bus_set_flow_control
                        0x000251b3    0x1c  Code  Gb  wwd_bus_protocol.o [7]
wiced_bus_transfer_buffer
                        0x000250ad   0x102  Code  Gb  wwd_bus_protocol.o [7]
wiced_bus_transfer_bytes
                        0x0002553d    0xe4  Code  Gb  wwd_bus_protocol.o [7]
wiced_device_core_is_up
                        0x0002d795    0x5c  Code  Gb  wwd_internal.o [7]
wiced_dhcp_handle       0x020179d8    0x3c  Data  Gb  wiced_network.o [7]
wiced_disable_device_core
                        0x0002d7f1    0x9e  Code  Gb  wwd_internal.o [7]
wiced_dns_redirector_start
                        0x0001df31    0x42  Code  Gb  dns_redirect.o [7]
wiced_dns_redirector_stop
                        0x0001df73    0x30  Code  Gb  dns_redirect.o [7]
wiced_download_firmware
                        0x0002565d    0xd0  Code  Lc  wwd_bus_protocol.o [7]
wiced_get_available_bus_credits
                        0x0001cadb     0xe  Code  Gb  SDPCM.o [7]
wiced_get_core_address  0x0002d789     0xc  Code  Lc  wwd_internal.o [7]
wiced_get_ioctl_buffer  0x0001c97d    0x26  Code  Gb  SDPCM.o [7]
wiced_get_iovar_buffer  0x0001c915    0x68  Code  Gb  SDPCM.o [7]
wiced_get_mac_addr      0x0001abc9    0x10  Code  Gb  wwd_management.o [7]
wiced_get_next_buffer_in_queue
                        0x0001cb79     0xa  Code  Lc  SDPCM.o [7]
wiced_get_packet_to_send
                        0x0001c9a3   0x138  Code  Gb  SDPCM.o [7]
wiced_gpio_input_get    0x00022281    0x14  Code  Gb  mico_platform_common.o [1]
wiced_gspi_32bit        0x0340177a     0x1  Data  Lc  wwd_bus_protocol.o [7]
wiced_handle_apsta_event
                        0x0001e0f9    0x2e  Code  Lc  wwd_ap.o [7]
wiced_init              0x000143f1    0x84  Code  Gb  wifi.o [7]
wiced_init_sdpcm        0x0001bd51    0xe4  Code  Gb  SDPCM.o [7]
wiced_inited            0x03401766     0x1  Data  Lc  wwd_thread.o [7]
wiced_initialised       0x03401773     0x1  Data  Lc  wifi.o [7]
wiced_ioctl_response    0x03401588     0x4  Data  Lc  SDPCM.o [7]
wiced_ioctl_sleep       0x0340158c     0x4  Data  Lc  SDPCM.o [7]
wiced_ip_broadcast      0x00043ef8    0x14  Data  Gb  wiced_network.o [7]
wiced_ip_down           0x0001de2d    0x7e  Code  Gb  wiced_network.o [7]
wiced_ip_get_gateway_address
                        0x00016f91    0x24  Code  Gb  tcpip.o [7]
wiced_ip_get_ipaddr     0x00016fd9    0x56  Code  Gb  tcpip.o [7]
wiced_ip_get_ipv4_address
                        0x00017353    0x24  Code  Gb  tcpip.o [7]
wiced_ip_get_netmask    0x00016fb5    0x24  Code  Gb  tcpip.o [7]
wiced_ip_handle         0x03400d64    0x88  Data  Gb  wiced_network.o [7]
wiced_ip_up             0x0001dbbd   0x270  Code  Gb  wiced_network.o [7]
wiced_join_events_handler
                        0x00010029   0x12a  Code  Lc  wwd_wifi.o [7]
wiced_join_status       0x03401658     0x4  Data  Gb  wwd_wifi.o [7]
wiced_mac_addr          0x034014f4     0x8  Data  Lc  wwd_management.o [7]
wiced_management_init   0x0001a9b5    0x1e  Code  Gb  wwd_management.o [7]
wiced_management_set_event_handler
                        0x0001c75d     0xa  Code  Gb  SDPCM.o [7]
wiced_management_wifi_off
                        0x0001ab79    0x50  Code  Gb  wwd_management.o [7]
wiced_management_wifi_on
                        0x0001a9d3   0x1a6  Code  Gb  wwd_management.o [7]
wiced_network_init      0x0001db09    0xa2  Code  Gb  wiced_network.o [7]
wiced_network_link_renew_handler
                        0x0001deab    0x18  Code  Gb  wiced_network.o [7]
wiced_network_send_ethernet_data
                        0x0001beb3    0x8a  Code  Gb  SDPCM.o [7]
wiced_networking_worker_thread
                        0x034014ac     0x8  Data  Gb  wiced_rtos.o [7]
wiced_packet_create_tcp
                        0x00017223    0x6c  Code  Gb  tcpip.o [7]
wiced_packet_create_udp
                        0x0001728f    0x12  Code  Gb  tcpip.o [7]
wiced_packet_delete     0x000172a1     0xa  Code  Gb  tcpip.o [7]
wiced_packet_get_data   0x000172dd    0x76  Code  Gb  tcpip.o [7]
wiced_packet_set_data_end
                        0x000172ab    0x16  Code  Gb  tcpip.o [7]
wiced_ping              0x00016f69    0x28  Code  Gb  tcpip.o [7]
wiced_ping_send         0x000227c5    0x8c  Code  Gb  wiced_ping.o [7]
wiced_platform_notify_irq
                        0x0002588f    0x22  Code  Gb  wwd_thread.o [7]
wiced_process_bus_credit_update
                        0x0001bf3d    0x72  Code  Gb  SDPCM.o [7]
wiced_process_sdpcm     0x0001bfaf   0x496  Code  Gb  SDPCM.o [7]
wiced_quit_sdpcm        0x0001be35    0x4e  Code  Gb  SDPCM.o [7]
wiced_read_backplane_value
                        0x0002550f    0x2e  Code  Gb  wwd_bus_protocol.o [7]
wiced_read_frame        0x0002520d    0x9e  Code  Gb  wwd_bus_protocol.o [7]
wiced_read_register_value
                        0x00025751    0x50  Code  Lc  wwd_bus_protocol.o [7]
wiced_receive_one_packet
                        0x0002582f    0x38  Code  Gb  wwd_thread.o [7]
wiced_reset_device_core
                        0x0002d88f    0x9e  Code  Gb  wwd_internal.o [7]
wiced_rtos_create_thread
                        0x00013121    0x4e  Code  Gb  wiced_rtos.o [7]
wiced_rtos_create_worker_thread
                        0x000133bb    0x5a  Code  Gb  wiced_rtos.o [7]
wiced_rtos_deinit_queue
                        0x000132fb     0xc  Code  Gb  wiced_rtos.o [7]
wiced_rtos_deinit_semaphore
                        0x00013283    0x16  Code  Gb  wiced_rtos.o [7]
wiced_rtos_deinit_timer
                        0x0001337d    0x22  Code  Gb  wiced_rtos.o [7]
wiced_rtos_delay_milliseconds
                        0x000131d1     0xa  Code  Gb  wiced_rtos.o [7]
wiced_rtos_delete_thread
                        0x0001316f    0x24  Code  Gb  wiced_rtos.o [7]
wiced_rtos_deregister_timed_event
                        0x0001345d    0x24  Code  Gb  wiced_rtos.o [7]
wiced_rtos_get_semaphore
                        0x0001321b    0x22  Code  Gb  wiced_rtos.o [7]
wiced_rtos_init         0x000130ff    0x22  Code  Gb  wiced_rtos.o [7]
wiced_rtos_init_queue   0x00013299    0x1e  Code  Gb  wiced_rtos.o [7]
wiced_rtos_init_semaphore
                        0x000131f9    0x22  Code  Gb  wiced_rtos.o [7]
wiced_rtos_init_timer   0x0001331d    0x36  Code  Gb  wiced_rtos.o [7]
wiced_rtos_is_current_thread
                        0x000131ad    0x18  Code  Gb  wiced_rtos.o [7]
wiced_rtos_pop_from_queue
                        0x000132d9    0x22  Code  Gb  wiced_rtos.o [7]
wiced_rtos_push_to_queue
                        0x000132b7    0x22  Code  Gb  wiced_rtos.o [7]
wiced_rtos_register_timed_event
                        0x00013415    0x48  Code  Gb  wiced_rtos.o [7]
wiced_rtos_send_asynchronous_event
                        0x00013481    0x14  Code  Gb  wiced_rtos.o [7]
wiced_rtos_set_semaphore
                        0x0001323d    0x46  Code  Gb  wiced_rtos.o [7]
wiced_rtos_start_timer  0x00013353    0x2a  Code  Gb  wiced_rtos.o [7]
wiced_rtos_thread_force_awake
                        0x000131c5     0xc  Code  Gb  wiced_rtos.o [7]
wiced_rtos_thread_join  0x00013193    0x1a  Code  Gb  wiced_rtos.o [7]
wiced_sdpcm_ioctl_mutex
                        0x03401584     0x4  Data  Lc  SDPCM.o [7]
wiced_sdpcm_send_queue_head
                        0x03401598     0x4  Data  Lc  SDPCM.o [7]
wiced_sdpcm_send_queue_mutex
                        0x03401594     0x4  Data  Lc  SDPCM.o [7]
wiced_sdpcm_send_queue_tail
                        0x0340159c     0x4  Data  Lc  SDPCM.o [7]
wiced_send_ioctl        0x0001c449   0x314  Code  Gb  SDPCM.o [7]
wiced_send_iovar        0x0001be83    0x30  Code  Gb  SDPCM.o [7]
wiced_send_one_packet   0x000257f3    0x3c  Code  Gb  wwd_thread.o [7]
wiced_send_sdpcm_common
                        0x0001cae9    0x90  Code  Lc  SDPCM.o [7]
wiced_set_backplane_window
                        0x0002d6e1    0xa8  Code  Gb  wwd_internal.o [7]
wiced_set_next_buffer_in_queue
                        0x0001cb83     0xe  Code  Lc  SDPCM.o [7]
wiced_start_dhcp_server
                        0x0002947d    0x58  Code  Gb  dhcp_server.o [7]
wiced_stop_dhcp         0x0001dec3     0x8  Code  Gb  wiced_network.o [7]
wiced_stop_dhcp_server  0x000294d5    0x2a  Code  Gb  dhcp_server.o [7]
wiced_tcp_bind          0x00017137    0x4a  Code  Gb  tcpip.o [7]
wiced_tcp_connect       0x0001708d    0xaa  Code  Gb  tcpip.o [7]
wiced_tcp_create_socket
                        0x0001702f    0x5e  Code  Gb  tcpip.o [7]
wiced_tcp_send_packet   0x00017181    0x20  Code  Gb  tcpip.o [7]
wiced_tcp_start_tls     0x00022f3b     0x6  Code  Gb  mxchipbesl.o [7]
wiced_thread            0x034015c0     0x4  Data  Lc  wwd_thread.o [7]
wiced_thread_func       0x000258c5    0xfe  Code  Lc  wwd_thread.o [7]
wiced_thread_init       0x000257a5    0x4e  Code  Gb  wwd_thread.o [7]
wiced_thread_notify     0x000258b1    0x14  Code  Gb  wwd_thread.o [7]
wiced_thread_quit       0x00025867    0x28  Code  Gb  wwd_thread.o [7]
wiced_thread_quit_flag  0x03401765     0x1  Data  Lc  wwd_thread.o [7]
wiced_time_get_time     0x000131db    0x1e  Code  Gb  wiced_rtos.o [7]
wiced_time_offset       0x0340154c     0x4  Data  Lc  wiced_rtos.o [7]
wiced_tls_encrypt_packet
                        0x00022f35     0x6  Code  Gb  mxchipbesl.o [7]
wiced_transceive_semaphore
                        0x034015c4     0x4  Data  Lc  wwd_thread.o [7]
wiced_udp_create_socket
                        0x00017377    0x7c  Code  Gb  tcpip.o [7]
wiced_udp_delete_socket
                        0x000174ad    0x1e  Code  Gb  tcpip.o [7]
wiced_udp_packet_get_info
                        0x000172c1    0x1c  Code  Gb  tcpip.o [7]
wiced_udp_receive       0x0001746f    0x3e  Code  Gb  tcpip.o [7]
wiced_udp_send          0x000173f3    0x7c  Code  Gb  tcpip.o [7]
wiced_using_dhcp        0x03401777     0x1  Data  Lc  wiced_network.o [7]
wiced_wifi_add_packet_filter
                        0x00010749    0x86  Code  Gb  wwd_wifi.o [7]
wiced_wifi_ap_is_up     0x03401779     0x1  Data  Gb  wwd_ap.o [7]
wiced_wifi_disable_monitor_mode
                        0x00010601    0x5c  Code  Gb  wwd_wifi.o [7]
wiced_wifi_enable_monitor_mode
                        0x000105a5    0x5c  Code  Gb  wwd_wifi.o [7]
wiced_wifi_enable_packet_filter
                        0x00010807     0xc  Code  Gb  wwd_wifi.o [7]
wiced_wifi_enable_powersave_with_throughput
                        0x00010251    0x8a  Code  Gb  wwd_wifi.o [7]
wiced_wifi_get_ap_name  0x00010855    0x68  Code  Gb  wwd_wifi.o [7]
wiced_wifi_get_channel  0x0001068d     0xc  Code  Gb  wwd_wifi.o [7]
wiced_wifi_get_mac_address
                        0x00010153    0x4e  Code  Gb  wwd_wifi.o [7]
wiced_wifi_get_pmk      0x000102ed    0x86  Code  Gb  wwd_wifi.o [7]
wiced_wifi_get_rssi     0x00010559    0x4c  Code  Gb  wwd_wifi.o [7]
wiced_wifi_get_wifi_version
                        0x00010919    0x52  Code  Gb  wwd_wifi.o [7]
wiced_wifi_is_packet_from_ap
                        0x0001e57d     0xe  Code  Gb  wwd_ap.o [7]
wiced_wifi_is_ready_to_transceive
                        0x000101dd    0x70  Code  Gb  wwd_wifi.o [7]
wiced_wifi_join         0x0000f98f   0x108  Code  Gb  wwd_wifi.o [7]
wiced_wifi_join_specific
                        0x0000fa97   0x194  Code  Gb  wwd_wifi.o [7]
wiced_wifi_leave        0x0000ffc1    0x66  Code  Gb  wwd_wifi.o [7]
wiced_wifi_prepare_join
                        0x0000fc2b   0x396  Code  Lc  wwd_wifi.o [7]
wiced_wifi_register_multicast_address
                        0x00010373    0xd0  Code  Gb  wwd_wifi.o [7]
wiced_wifi_remove_packet_filter
                        0x000107d9    0x2e  Code  Gb  wwd_wifi.o [7]
wiced_wifi_scan         0x0000f4f9   0x12c  Code  Gb  wwd_wifi.o [7]
wiced_wifi_scan_networks
                        0x00014475   0x11c  Code  Gb  wifi.o [7]
wiced_wifi_set_channel  0x000106d7     0xc  Code  Gb  wwd_wifi.o [7]
wiced_wifi_set_down     0x00010665    0x20  Code  Gb  wwd_wifi.o [7]
wiced_wifi_set_maxassoc
                        0x0001096b    0x2c  Code  Gb  wwd_wifi.o [7]
wiced_wifi_set_nmode    0x000101a9    0x2e  Code  Gb  wwd_wifi.o [7]
wiced_wifi_sleep_flag   0x0340171c     0x4  Data  Lc  wwd_ap.o [7]
wiced_wifi_start_ap     0x0001e127   0x332  Code  Gb  wwd_ap.o [7]
wiced_wifi_stop_ap      0x0001e45d    0xea  Code  Gb  wwd_ap.o [7]
wiced_wifi_stop_scan    0x0000f625    0x58  Code  Gb  wwd_wifi.o [7]
wiced_wifi_toggle_packet_filter
                        0x00010813    0x32  Code  Gb  wwd_wifi.o [7]
wiced_wifi_unregister_multicast_address
                        0x00010443    0xf0  Code  Gb  wwd_wifi.o [7]
wiced_wlan_status       0x0340035c     0xc  Data  Gb  wwd_internal.o [7]
wiced_write_backplane_value
                        0x000254e5    0x2a  Code  Gb  wwd_bus_protocol.o [7]
wiced_write_register_value
                        0x000254a5    0x40  Code  Gb  wwd_bus_protocol.o [7]
wiced_write_wifi_firmware_image
                        0x0002d941    0xbe  Code  Gb  wwd_firmware.o [7]
wiced_write_wifi_nvram_image
                        0x0002d9ff   0x162  Code  Gb  wwd_firmware.o [7]
wifi_control_pins       0x00042550     0x8  Data  Gb  platform.o [1]
wifi_join_aping         0x03401772     0x1  Data  Lc  wwd_wifi.o [7]
wifi_mgmt_parse         0x0000e33d   0x10c  Code  Lc  smart_config.o [7]
wifi_nvram_image        0x00041f0c   0x30c  Data  Lc  wwd_firmware.o [7]
wifi_power_down         0x0000f0f7    0x26  Code  Gb  mxchipWNET.o [7]
wifi_power_is_down      0x03401528     0x4  Data  Lc  mxchipWNET.o [7]
wifi_reboot_event       0x0000f34d    0x16  Code  Gb  mico_system_notification.o [1]
wifi_reboot_only        0x00011de1    0x34  Code  Gb  wifimgr.o [7]
wifi_spi_pins           0x00042558     0xc  Data  Gb  platform.o [1]
wifi_status_callback    0x0000eb97    0x74  Code  Gb  mxchipWNET.o [7]
wifi_up                 0x03401514     0x4  Data  Lc  tftp_ota.o [1]
wifidebug_Command       0x00012511    0x70  Code  Gb  wifimgr.o [7]
wifimgr_debug_enable    0x000109b9    0x1c  Code  Gb  wifimgr.o [7]
wifimgr_sem             0x03401564     0x4  Data  Lc  wifimgr.o [7]
wifimgr_thread          0x00011f49   0x148  Code  Lc  wifimgr.o [7]
wifiscan_Command        0x000125c9   0x268  Code  Gb  wifimgr.o [7]
wifistate_Command       0x0001232d   0x1dc  Code  Gb  wifimgr.o [7]
wlan_disconnect         0x0001133d    0x48  Code  Gb  wifimgr.o [7]
wlan_driver_version     0x0000f1a7     0xa  Code  Gb  mxchipWNET.o [7]
wlan_get_mac_address    0x00011ca3     0x8  Code  Gb  wifimgr.o [7]
wlan_init               0x00011db5    0x28  Code  Gb  wifimgr.o [7]
wlan_spi_xfer_done      0x00024d9d    0x40  Code  Gb  wlan_bus_spi.o [1]
wlu_is_ali_ie           0x0000d763    0x36  Code  Lc  smart_config.o [7]
wlu_is_wpa_ie           0x000108e3    0x36  Code  Lc  wwd_wifi.o [7]
wlu_parse_tlvs          0x0000d73d    0x26  Code  Lc  smart_config.o [7]
wlu_parse_tlvs          0x000108bd    0x26  Code  Lc  wwd_wifi.o [7]
work_mode               0x03401618     0x4  Data  Lc  smart_config.o [7]
worker_thread_main      0x0001339f    0x1c  Code  Lc  wiced_rtos.o [7]
wps_running             0x0340176d     0x1  Data  Lc  wps_host.o [7]
write                   0x0000efd1     0xa  Code  Gb  mxchipWNET.o [7]
writeCString            0x0003e91f    0x38  Code  Gb  MQTTPacket.o [4]
writeChar               0x0003e8ff     0x4  Code  Gb  MQTTPacket.o [4]
writeInt                0x0003e903    0x12  Code  Gb  MQTTPacket.o [4]
writeMQTTString         0x0003e957    0x58  Code  Gb  MQTTPacket.o [4]
wwd_management_set_event_handler
                        0x0001c767   0x17e  Code  Gb  SDPCM.o [7]
wwd_thread_line         0x034015b8     0x4  Data  Gb  wwd_thread.o [7]
wwd_wifi_get_channel    0x00010699    0x3e  Code  Gb  wwd_wifi.o [7]
wwd_wifi_set_channel    0x000106e3    0x62  Code  Gb  wwd_wifi.o [7]
xActiveTimerList1       0x02017da0    0x14  Data  Lc  ostimers.o [7]
xActiveTimerList2       0x02017db4    0x14  Data  Lc  ostimers.o [7]
xDelayedTaskList1       0x02017dc8    0x14  Data  Lc  tasks.o [7]
xDelayedTaskList2       0x02017ddc    0x14  Data  Lc  tasks.o [7]
xMissedYield            0x034016e4     0x4  Data  Lc  tasks.o [7]
xNextTaskUnblockTime    0x0340040c     0x4  Data  Lc  tasks.o [7]
xNumOfOverflows         0x034016e8     0x4  Data  Lc  tasks.o [7]
xPendingReadyList       0x02017df0    0x14  Data  Lc  tasks.o [7]
xPortPendSVHandler      0x00022113          Code  Gb  portasm.o [7]
xPortStartScheduler     0x00021c37    0x3c  Code  Gb  port.o [7]
xPortSysTickHandler     0x00021ca9    0x1a  Code  Gb  port.o [7]
xQueueCreateCountingSemaphore
                        0x000216df    0x14  Code  Gb  queue.o [7]
xQueueCreateMutex       0x00021683    0x5c  Code  Gb  queue.o [7]
xQueueGenericCreate     0x00021605    0x7e  Code  Gb  queue.o [7]
xQueueGenericReceive    0x0002181d   0x156  Code  Gb  queue.o [7]
xQueueGenericSend       0x000216f3    0xd4  Code  Gb  queue.o [7]
xQueueGenericSendFromISR
                        0x000217c7    0x56  Code  Gb  queue.o [7]
xQueueIsQueueEmptyFromISR
                        0x00021ab1     0xe  Code  Gb  queue.o [7]
xQueueIsQueueFullFromISR
                        0x00021add    0x10  Code  Gb  queue.o [7]
xSchedulerRunning       0x034016d8     0x4  Data  Lc  tasks.o [7]
xSuspendedTaskList      0x02017e18    0x14  Data  Lc  tasks.o [7]
xTaskCheckForTimeOut    0x00013f73    0x60  Code  Gb  tasks.o [7]
xTaskForceAwakeClearPending
                        0x00013af1     0xc  Code  Gb  tasks.o [7]
xTaskForceAwakePending  0x00013ae7     0xa  Code  Gb  tasks.o [7]
xTaskGenericCreate      0x00013849   0x130  Code  Gb  tasks.o [7]
xTaskGetCurrentTaskHandle
                        0x000142d3     0x6  Code  Gb  tasks.o [7]
xTaskGetCurrentThread   0x00013a93     0x8  Code  Gb  tasks.o [7]
xTaskGetSchedulerState  0x000142d9    0x1c  Code  Gb  tasks.o [7]
xTaskGetTickCount       0x00013c2b    0x14  Code  Gb  tasks.o [7]
xTaskGetTickCountFromISR
                        0x00013c3f    0x16  Code  Gb  tasks.o [7]
xTaskIsTaskFinished     0x00013a23    0x70  Code  Gb  tasks.o [7]
xTaskRemoveFromEventList
                        0x00013f01    0x62  Code  Gb  tasks.o [7]
xTaskResumeAll          0x00013b59    0xd2  Code  Gb  tasks.o [7]
xTasksWaitingTermination
                        0x02017e04    0x14  Data  Lc  tasks.o [7]
xTickCount              0x034016cc     0x4  Data  Lc  tasks.o [7]
xTimerCreate            0x00021d3b    0x4c  Code  Gb  ostimers.o [7]
xTimerCreateTimerTask   0x00021d01    0x3a  Code  Gb  ostimers.o [7]
xTimerGenericCommand    0x00021d87    0x52  Code  Gb  ostimers.o [7]
xTimerQueue             0x034016b0     0x4  Data  Lc  ostimers.o [7]
xorbuf                  0x00027a17    0x32  Code  Lc  aes.o [7]
zcbReceivedMessageQueue
                        0x020175dc   0x18c  Data  Gb  user_uart.o [1]


[1] = E:\work\13.WiFi_Mxchip\SDK_MiCOKit_v2.3.0.2\Build\Cloud_RGB_LED\MiCOKit-LPC5410x\obj_EWARM
[2] = E:\work\13.WiFi_Mxchip\SDK_MiCOKit_v2.3.0.2\MICO\system\tftp_ota
[3] = command line
[4] = FogCloud_cm4_release.a
[5] = dl7M_tlf.a
[6] = m7M_tls.a
[7] = mxchipWNet_cm4f_spi.a
[8] = rt7M_tl.a
[9] = shb_l.a

  211 830 bytes of readonly  code memory
   19 742 bytes of readonly  data memory
  104 705 bytes of readwrite data memory

Errors: none
Warnings: 8
